


      /HP-45 AND HP-35 EMULATOR                                           Page 1


    1              /HP-45 AND HP-35 EMULATOR
    2              /BASED ON HP-35 EMULATOR WRITTEN 6/17/2013
    3              /INSPIRED BY ERIC SMITH'S CASMSIM/NONPAREIL PROJECT
    4              /KYLE OWEN - 9/4/2016
    5              
    6              /BUGS: 
    7              / HP-45 ERROR DISPLAY DOES NOT FUNCTION
    8              
    9              /NOTES:
   10              / HP-55 SUPPORT MAY BE POSSIBLE, BUT WILL NEED TO IMPLEMENT...
   11              /  * DELAYED SELECT GROUP
   12              /  * DELAYED SELECT ROM
   13              /  * ROM ADDRESS -> BUFFER
   14              /  * 30 WORDS OF RAM (10 FOR HP-45)
   15              /  * WAY MORE COMPLICATED HELP PAGE (YOU'LL NEED IT)
   16              
   17              /CHANGE LOG:
   18              / 17 JUN 2013   KVO: INITIAL COMMIT
   19              /  4 SEP 2016   KVO: ADDED HP-45 SUPPORT
   20              /  6 SEP 2016   KVO: ADDED OS/8 SUPPORT
   21              /  9 SEP 2016   KVO: ADDED MACROS FOR 4K HP-35 ONLY MODE
   22              /  9 SEP 2016   KVO: ADDED RUDIMENTARY SUPPORT FOR PRINTING TERMINALS
   23              
   24        0000  IFNDEF STRT8 <STRT8=0>
   25                      /=0 FOR FULL FEATURES
   26                      /=1 FOR 4K HP-35 ONLY MODE FOR STRAIGHT-8 AND OTHERS
   27                      /NO DEBUG FEATURES ALLOWED
   28                      /NO OS/8 ALLOWED
   29                      /NO HELP FEATURE
   30        0000  IFNDEF TTY <TTY=0>
   31                      /=0 FOR VIDEO TERMINAL OPERATION
   32                      /=1 FOR TELETYPE OPERATION
   33              IFZERO STRT8 <
   34        0002  IFNDEF OS8 <OS8=2>
   35                      /=0 FOR PAPER TAPE OPERATION
   36                      /=2 FOR OS/8 OPERATION
   37        0004  IFNDEF DBGMOD <DBGMOD=4>
   38                      /=0 FOR NO DEBUG
   39                      /=4 FOR DEBUG OPERATION (PRINTS REGISTERS)
   40                      /SR11 = 1 WILL TURN ON DEBUG FEATURES
   41                      /SR11 = 0 WILL TURN OFF DEBUG FEATURES
   42                      /SR10 = 1 WILL PUT CURRENT INSTRUCTION IN MQ
   43                      /SR10 = 0 WILL PUT CURRENT ADDRESS IN MQ
   44                      /SR9 = 1 WILL TURN TRACE MODE ON (REG A-D PRINTED)
   45                      /SR9 = 0 WILL TURN TRACE MODE OFF
   46                      /SR8 = 1 WILL HALT ON INSTRUCTION IN HLTINS
   47                      /IF HLTINS IS 7777, ANY INSTRUCTION WILL HALT
   48                      /SR8 = 0 TO TURN OFF HALT FEATURE
   49              >
   50              



      /HP-45 AND HP-35 EMULATOR                                           Page 2


   51              IFNDEF OS8 <OS8=0>
   52              IFNDEF DBGMOD <DBGMOD=0>
   53              
   54              IFZERO STRT8+OS8-3 <ILLEGAL CONFIGURATION>
   55              IFZERO STRT8+DBGMOD-5 <ILLEGAL CONFIGURATION>
   56              
   57        0000  HP35=0                  /SR0 = 0 FOR HP-35
   58        0001  HP45=1                  /SR0 = 1 FOR HP-45
   59              
   60        0001  *0001
   61 00001  7402          HLT             /CATCH INTERRUPTS
   62              /THE FOLLOWING WILL BE RESET TO ZERO UPON RESET
   63 00002  0000  P,      0000            /1 (4 BITS)
   64 00003  0000  ROM,    0000            /1 (3 BITS)
   65 00004  0000  RET,    0000            /1 (8 BITS)
   66 00005  0000  OPCODE, 0000            /1 (10 BITS)
   67 00006  0000  FIRST,  0000            /1 (4 BITS)
   68 00007  0000  LAST,   0000            /1 (4 BITS)
   69              
   70        0010  *0010                   /AUTO-INCREMENT!
   71 00010  0000  INDEX1, 0000            /1 (12 BITS)
   72 00011  0000  INDEX2, 0000            /1 (12 BITS)
   73 00012  0000  DISPEN, 0000            /1 (1 BIT)
   74 00013  0000  UPDATE, 0000            /1 (1 BIT)
   75 00014  0000  CARRY,  0000            /1 (1 BIT)
   76 00015  0000  PCARRY, 0000            /1 (1 BIT)
   77 00016  0000  ERR,    0000            /1 (1 BIT)
   78              
   79        0020  *0020
   80 00020  0000  PC,     0000            /1 (8 BITS)
   81 00021  0000  DELROM, 0000            /1 (3 BITS)
   82 00022  0000  ADDR,   0000
   83 00023  0000  KEYC,   0000            /1 (8 BITS)
   84 00024  0000  KEYR,   0000            /1 (8 BITS)
   85 00025  0000  SIZE,   0000            /1 (12 BITS)
   86 00026  0000  REGTOP, 0000            /1 (12 BITS)
   87 00027  0000  REGIDX, 0000            /1 (12 BITS)
   88 00030  0000  NEWIDX, 0000
   89 00031  0000  ATIO,   0000            /1 (12 BITS)
   90 00032  0000  DECODE, 0000            /1 (12 BITS)
   91 00033  0000  REGS,   0000            /1 (12 BITS)
   92 00034  0000  RAMADR, 0000            /1 (4 BITS FOR HP-45)
   93              
   94 00035  0000  REGA,   0000            /7 (56 BITS)
   95 00036  0000          0000
   96 00037  0000          0000
   97 00040  0000          0000
   98 00041  0000          0000
   99 00042  0000          0000
  100 00043  0000          0000



      /HP-45 AND HP-35 EMULATOR                                           Page 3


  101 00044  0000  REGB,   0000            /7 (56 BITS)
  102 00045  0000          0000
  103 00046  0000          0000
  104 00047  0000          0000
  105 00050  0000          0000
  106 00051  0000          0000
  107 00052  0000          0000
  108 00053  0000  REGC,   0000            /7 (56 BITS)
  109 00054  0000          0000
  110 00055  0000          0000
  111 00056  0000          0000
  112 00057  0000          0000
  113 00060  0000          0000
  114 00061  0000          0000
  115 00062  0000  REGD,   0000            /7 (56 BITS)
  116 00063  0000          0000
  117 00064  0000          0000
  118 00065  0000          0000
  119 00066  0000          0000
  120 00067  0000          0000
  121 00070  0000          0000
  122 00071  0000  REGE,   0000            /7 (56 BITS)
  123 00072  0000          0000
  124 00073  0000          0000
  125 00074  0000          0000
  126 00075  0000          0000
  127 00076  0000          0000
  128 00077  0000          0000
  129 00100  0000  REGF,   0000            /7 (56 BITS)
  130 00101  0000          0000
  131 00102  0000          0000
  132 00103  0000          0000
  133 00104  0000          0000
  134 00105  0000          0000
  135 00106  0000          0000
  136 00107  0000  REGM,   0000            /7 (56 BITS)
  137 00110  0000          0000
  138 00111  0000          0000
  139 00112  0000          0000
  140 00113  0000          0000
  141 00114  0000          0000
  142 00115  0000          0000
  143              /THE PREVIOUS WILL BE RESET TO ZERO UPON RESET
  144 00116  0000  TEMP,   0000            /7 (56 BITS)
  145 00117  0000  BYTE1,  0000
  146 00120  0000  BYTE2,  0000
  147 00121  0000  RESULT, 0000
  148 00122  0000          0000
  149 00123  0000          0000
  150 00124  0000          0000



      /HP-45 AND HP-35 EMULATOR                                           Page 4


  151              IFNZER DBGMOD <
  152 00125  7777  HLTINS, 7777            /INSTRUCTION TO HALT ON (7777 FOR HALT ON ANY)
  153 00126  0000  DEBUG,  0000            /DEBUG MODE (SET BY SR)
  154              >
  155              IFZERO STRT8 <
  156 00127  2000  HPROM,  ROM35           /WHICH ROM TO USE? HP35 OR HP45
  157 00130  0000  MODE,   HP35            /HP45 OR HP35 MODE
  158              >
  159              
  160              IFNZER STRT8 <
  161              BSW=JMS I [BSWSUB]
  162              
  163              BSWSUB, 0
  164                      DCA BSWTMP              /SAVE AC
  165                      CML                     /COMPLEMENT LINK
  166                      SZL                     /WAS IT ZERO BEFORE CML?
  167                      CLL CMA                 /YES, CLEAR LINK AND AC=-1
  168                      DCA BSWLNK              /SAVE INVERTED LINK
  169                      TAD BSWTMP              /GET AC
  170                      AND (7700)              /GET TOP HALF
  171                      TAD BSWTMP              /ADD AC, SHIFTING TOP 6 INTO LINK
  172                      RTL                     /ROTATE SIX MORE TIMES
  173                      RTL
  174                      RTL
  175                      ISZ BSWLNK              /WAS LINK ZERO BEFORE FIRST CML?
  176                      CML                     /NO, SET LINK
  177                      JMP I BSWSUB            /YES, JUST RETURN
  178              BSWTMP, 0
  179              BSWLNK, 0
  180              >
  181              
  182        0200          *0200                   /START OF PROGRAM
  183              IFZERO STRT8 <
  184 00200  4777@         JMS     SBNLCR          /PRINT SIGN ON MESSAGE
  185 00201  1376          TAD     (GRTMSG-1)
  186 00202  3010          DCA     INDEX1
  187 00203  4775@         JMS     TXTPRN
  188              >
  189 00204  4774@ START,  JMS     RESET           /RESET REGISTERS AND SUCH
  190 00205  1373          TAD     (INSTLU-1)      /SET UP JUMP TABLE FOR INSTRUCTION DECODE
  191 00206  3010          DCA     INDEX1
  192 00207  1372          TAD     (-0400)         /1024 / 4 = 256
  193 00210  3025          DCA     SIZE
  194 00211  1371  INIT1,  TAD     (ERROR)
  195 00212  3410          DCA I   INDEX1
  196 00213  1370          TAD     (JSB)
  197 00214  3410          DCA I   INDEX1
  198 00215  1367          TAD     (ARITH)
  199 00216  3410          DCA I   INDEX1
  200 00217  1366          TAD     (GOTO)



      /HP-45 AND HP-35 EMULATOR                                           Page 5


  201 00220  3410          DCA I   INDEX1
  202 00221  2025          ISZ     SIZE
  203 00222  5211          JMP     INIT1
  204                      
  205 00223  1365          TAD     (INSTLU)
  206 00224  3116          DCA     TEMP
  207 00225  1364          TAD     (-0020)         /1024 / 64 = 16
  208 00226  3025          DCA     SIZE
  209 00227  1116  INIT2,  TAD     TEMP
  210 00230  0363          AND     (0100)
  211 00231  7440          SZA
  212 00232  5245          JMP     INIT3
  213 00233  1116          TAD     TEMP
  214 00234  1362          TAD     (0020)
  215 00235  3121          DCA     RESULT
  216 00236  1361          TAD     (SELROM)
  217 00237  3521          DCA I   RESULT
  218 00240  1121          TAD     RESULT
  219 00241  1360          TAD     (0144)
  220 00242  3121          DCA     RESULT
  221 00243  1357          TAD     (DSROM)
  222 00244  3521          DCA I   RESULT
  223 00245  7200  INIT3,  CLA
  224 00246  1116          TAD     TEMP
  225 00247  1356          TAD     (0004)
  226 00250  3121          DCA     RESULT
  227 00251  1355          TAD     (SETS)
  228 00252  3521          DCA I   RESULT
  229 00253  1121          TAD     RESULT
  230 00254  1354          TAD     (0010)
  231 00255  3121          DCA     RESULT
  232 00256  1353          TAD     (SETP)
  233 00257  3521          DCA I   RESULT
  234 00260  1121          TAD     RESULT
  235 00261  1354          TAD     (0010)
  236 00262  3121          DCA     RESULT
  237 00263  1352          TAD     (TESTS)
  238 00264  3521          DCA I   RESULT
  239 00265  1121          TAD     RESULT
  240 00266  1356          TAD     (0004)
  241 00267  3121          DCA     RESULT
  242 00270  1351          TAD     (LDCONS)
  243 00271  3521          DCA I   RESULT
  244 00272  1121          TAD     RESULT
  245 00273  1356          TAD     (0004)
  246 00274  3121          DCA     RESULT
  247 00275  1350          TAD     (DECP)
  248 00276  3521          DCA I   RESULT
  249 00277  1121          TAD     RESULT
  250 00300  1354          TAD     (0010)



      /HP-45 AND HP-35 EMULATOR                                           Page 6


  251 00301  3121          DCA     RESULT
  252 00302  1347          TAD     (CLRSB)
  253 00303  3521          DCA I   RESULT
  254 00304  1121          TAD     RESULT
  255 00305  1354          TAD     (0010)
  256 00306  3121          DCA     RESULT
  257 00307  1346          TAD     (TESTP)
  258 00310  3521          DCA I   RESULT
  259 00311  1121          TAD     RESULT
  260 00312  1362          TAD     (0020)
  261 00313  3121          DCA     RESULT
  262 00314  1345          TAD     (INCP)
  263 00315  3521          DCA I   RESULT
  264 00316  1116          TAD     TEMP
  265 00317  1363          TAD     (0100)
  266 00320  3116          DCA     TEMP
  267 00321  2025          ISZ     SIZE
  268 00322  5227          JMP     INIT2
  269 00323  5744@         JMP     INIT4
  270                      
      00344  0400
      00345  3322
      00346  3225
      00347  3143
      00350  3274
      00351  3104
      00352  3210
      00353  3067
      00354  0010
      00355  3122
      00356  0004
      00357  3073
      00360  0144
      00361  3054
      00362  0020
      00363  0100
      00364  7760
      00365  5000
      00366  3037
      00367  1605
      00370  3024
      00371  1602
      00372  7400
      00373  4777
      00374  4000
      00375  4061
      00376  0177
      00377  4134
  271                      PAGE
  272                      



      /HP-45 AND HP-35 EMULATOR                                           Page 7


  273 00400  1377  INIT4,  TAD     (INSTLU)
  274 00401  3121          DCA     RESULT
  275 00402  1376          TAD     (OPNOP)         /0000
  276 00403  3521          DCA I   RESULT
  277 00404  1121          TAD     RESULT
  278 00405  1375          TAD     (0050)
  279 00406  3121          DCA     RESULT
  280 00407  1374          TAD     (DISPT)         /0050
  281 00410  3521          DCA I   RESULT
  282 00411  1121          TAD     RESULT
  283 00412  1373          TAD     (0010)
  284 00413  3121          DCA     RESULT
  285 00414  1372          TAD     (RETS)          /0060
  286 00415  3521          DCA I   RESULT
  287 00416  1121          TAD     RESULT
  288 00417  1371          TAD     (0004)
  289 00420  3121          DCA     RESULT
  290 00421  1370          TAD     (CLRS)          /0064
  291 00422  3521          DCA I   RESULT
  292 00423  1121          TAD     RESULT
  293 00424  1367          TAD     (0164)
  294 00425  3121          DCA     RESULT
  295 00426  1366          TAD     (CEXCHM)        /0250
  296 00427  3521          DCA I   RESULT
  297 00430  1121          TAD     RESULT
  298 00431  1375          TAD     (0050)
  299 00432  3121          DCA     RESULT
  300 00433  1365          TAD     (KTOROM)        /0320
  301 00434  3521          DCA I   RESULT
  302 00435  1121          TAD     RESULT
  303 00436  1364          TAD     (0130)
  304 00437  3121          DCA     RESULT
  305 00440  1363          TAD     (PUSHC)         /0450
  306 00441  3521          DCA I   RESULT
  307 00442  1121          TAD     RESULT
  308 00443  1362          TAD     (0200)
  309 00444  3121          DCA     RESULT
  310 00445  1361          TAD     (PULLA)         /0650
  311 00446  3521          DCA I   RESULT
  312 00447  1121          TAD     RESULT
  313 00450  1362          TAD     (0200)
  314 00451  3121          DCA     RESULT
  315 00452  1360          TAD     (DISOFF)        /1050
  316 00453  3521          DCA I   RESULT
  317 00454  1121          TAD     RESULT
  318              IFZERO STRT8 <
  319 00455  1357          TAD     (0110)
  320              >
  321              IFNZER STRT8 <
  322                      TAD     (0200)



      /HP-45 AND HP-35 EMULATOR                                           Page 8


  323              >
  324 00456  3121          DCA     RESULT
  325              IFZERO STRT8 <
  326 00457  1356          TAD     (CTOADR)        /1160
  327 00460  3521          DCA I   RESULT
  328 00461  1121          TAD     RESULT
  329 00462  1355          TAD     (0070)
  330 00463  3121          DCA     RESULT
  331              >
  332 00464  1354          TAD     (MTOC)          /1250
  333 00465  3521          DCA I   RESULT
  334 00466  1121          TAD     RESULT
  335              IFZERO STRT8 <
  336 00467  1357          TAD     (0110)
  337              >
  338              IFNZER STRT8 <
  339                      TAD     (0200)
  340              >
  341 00470  3121          DCA     RESULT
  342              IFZERO STRT8 <
  343 00471  1353          TAD     (CTODAT)        /1360
  344 00472  3521          DCA I   RESULT
  345 00473  1121          TAD     RESULT
  346 00474  1373          TAD     (0010)
  347 00475  3121          DCA     RESULT
  348 00476  1352          TAD     (DATTOC)        /1370
  349 00477  3521          DCA I   RESULT
  350 00500  1121          TAD     RESULT
  351 00501  1351          TAD     (0060)
  352 00502  3121          DCA     RESULT
  353              >
  354 00503  1350          TAD     (ROTATE)        /1450
  355 00504  3521          DCA I   RESULT
  356 00505  1121          TAD     RESULT
  357 00506  1362          TAD     (0200)
  358 00507  3121          DCA     RESULT
  359 00510  1347          TAD     (CLEARR)        /1650
  360 00511  3521          DCA I   RESULT
  361                      /END OF JUMP TABLE INIT
  362              
  363 00512  7040          CMA                     /ACC = 7777 (-1)
  364 00513  3023          DCA     KEYC            /KEY CODE = -1
  365 00514  7040          CMA
  366 00515  3013          DCA     UPDATE          /UPDATE DISPLAY
  367 00516  7040          CMA
  368 00517  3012          DCA     DISPEN          /ENABLE DISPLAY
  369 00520  6032          KCC                     /PREPARE KEYBOARD INPUT
  370              
  371 00521  5746@         JMP     LOOP
  372              



      /HP-45 AND HP-35 EMULATOR                                           Page 9


      00546  0600
      00547  3520
      00550  3464
      00551  0060
      00552  3621
      00553  3606
      00554  3454
      00555  0070
      00556  3600
      00557  0110
      00560  3444
      00561  3422
      00562  0200
      00563  3400
      00564  0130
      00565  3331
      00566  3336
      00567  0164
      00570  3316
      00571  0004
      00572  3311
      00573  0010
      00574  3304
      00575  0050
      00576  1600
      00577  5000
  373                      PAGE
  374              
  375              /MAIN LOOP
  376 00600  7300  LOOP,   CLA CLL
  377 00601  1014          TAD     CARRY           /GET CARRY
  378 00602  3015          DCA     PCARRY          /PCARRY = CARRY
  379 00603  3014          DCA     CARRY           /CLEAR CARRY
  380 00604  1003          TAD     ROM             /GET ROM #
  381 00605  7006          RTL
  382              IFNZER STRT8 <
  383                      RTL
  384                      RTL
  385                      RTL
  386              >
  387              IFZERO STRT8 <
  388 00606  7002          BSW                     /MULTIPLY BY 256
  389              >
  390 00607  1020          TAD     PC              /ADD PC
  391 00610  3022          DCA     ADDR            /SAVE ADDRESS
  392              IFNZER STRT8 <
  393                      TAD     ADDR            /GET ADDRESS
  394                      TAD     (ROM35)         /ADD START OF ROM DUMP
  395                      DCA     TEMP            /SAVE ADDRESS
  396                      TAD I   TEMP            /FETCH OPCODE FROM ROM



      /HP-45 AND HP-35 EMULATOR                                          Page 10


  397              >
  398              IFZERO STRT8 <
  399 00611  1022          TAD     ADDR
  400 00612  1127          TAD     HPROM           /ADD START OF ROM DUMP
  401 00613  3116          DCA     TEMP            /SAVE ADDRESS
  402 00614  6211          CDF     0010            /CHANGE TO FIELD 1 FOR ROM DUMP
  403 00615  1516          TAD I   TEMP            /FETCH OPCODE FROM ROM
  404 00616  6201          CDF     0000            /CHANGE TO FIELD 0
  405              >
  406 00617  3005          DCA     OPCODE          /SAVE OPCODE
  407 00620  1020          TAD     PC              /GET PC
  408 00621  7001          IAC                     /INCREMENT PC
  409 00622  0177          AND     [0377]          /PC %= 256
  410 00623  3020          DCA     PC              /SAVE PC
  411 00624  1022          TAD     ADDR
  412 00625  1377          TAD     (-0277)         /IS THERE AN ERROR?
  413 00626  7440          SZA
  414              IFNZER DBGMOD <
  415 00627  5232          JMP     GETSR           /NO
  416              >
  417              IFZERO DBGMOD <
  418              IFZERO STRT8 <
  419                      JMP     SRMOD           /NO
  420              >
  421              IFNZER STRT8 <
  422                      JMP     INSDEC          /NO
  423              >
  424              >
  425 00630  7040          CMA                     /YES
  426 00631  3016          DCA     ERR             /SET ERROR
  427                      
  428              IFNZER DBGMOD <
  429 00632  7704  GETSR,  CLA CLL OSR             /GET SR
  430 00633  7010          RAR                     /SR11 = DEBUG MODE
  431 00634  7420          SNL                     /WAS IT 1?
  432 00635  5244          JMP     NODBG           /NO, DON'T DEBUG
  433 00636  7010          RAR                     /SR10 = ADDR/~INSTR IN MQ
  434 00637  7620          SNL CLA
  435 00640  5247          JMP     DBGADQ          /NO, PUT ADDRESS IN MQ
  436 00641  1005          TAD     OPCODE
  437 00642  7421          MQL                     /PUT OPCODE IN MQ
  438 00643  5251          JMP     DBGMDS          /ARE WE DEBUGGING?
  439 00644  7200  NODBG,  CLA
  440 00645  3126          DCA     DEBUG           /NO DEBUGGING
  441 00646  5776@         JMP     SRMOD           /CONTINUE ON
  442                      
  443 00647  1022  DBGADQ, TAD     ADDR            /GET ADDRESS
  444 00650  7421          MQL                     /PUT ADDRESS IN MQ
  445                      
  446 00651  7404  DBGMDS, OSR



      /HP-45 AND HP-35 EMULATOR                                          Page 11


  447 00652  0375          AND     (0004)          /SR9 = TRACE MODE
  448 00653  3126          DCA     DEBUG
  449 00654  1126          TAD     DEBUG
  450 00655  7450          SNA
  451 00656  5275          JMP     DBGSKP          /TRACE MODE DISABLED
  452                      
  453 00657  7200  DEBUGP, CLA                     /PRINT REG A THROUGH D
  454 00660  1176          TAD     [REGA]
  455 00661  3026          DCA     REGTOP
  456 00662  4774@         JMS     PRINTR
  457 00663  1175          TAD     [REGB]
  458 00664  3026          DCA     REGTOP
  459 00665  4774@         JMS     PRINTR
  460 00666  1174          TAD     [REGC]
  461 00667  3026          DCA     REGTOP
  462 00670  4774@         JMS     PRINTR
  463 00671  1173          TAD     [REGD]
  464 00672  3026          DCA     REGTOP
  465 00673  4774@         JMS     PRINTR
  466 00674  4773@         JMS     SBNLCR
  467                      
  468 00675  7404  DBGSKP, OSR                     /GET SR
  469 00676  0372          AND     (0010)          /SR8 = HALT
  470 00677  7450          SNA                     /WAS IT 0?
  471 00700  5776@         JMP     SRMOD           /YES, CONTINUE
  472 00701  7200          CLA
  473 00702  1125          TAD     HLTINS
  474 00703  7040          CMA
  475 00704  7440          SZA                     /IS HLTINS 7777?
  476 00705  5310          JMP     HLTOPC          /NO, HALT ON OPCODE
  477 00706  7402  HLTNOW, HLT                     /YES, HALT NOW
  478 00707  5776@         JMP     SRMOD           /CONTINUE WITH DECODE
  479 00710  7001  HLTOPC, IAC
  480 00711  1005          TAD     OPCODE
  481 00712  7450          SNA                     /DOES HLTINS == OPCODE?
  482 00713  5306          JMP     HLTNOW          /YES, HALT NOW
  483              
      00772  0010
      00773  4134
      00774  3532
      00775  0004
      00776  1000
      00777  7501
  484                      PAGE
  485              >
  486              
  487              IFZERO STRT8 <
  488 01000  7300  SRMOD,  CLA CLL
  489 01001  7404          OSR                     /READ SR
  490 01002  7004          RAL                     /GET HIGH BIT INTO LINK



      /HP-45 AND HP-35 EMULATOR                                          Page 12


  491 01003  7200          CLA                     /CLEAR REST OF AC
  492 01004  7004          RAL                     /MOVE LINK INTO BOTTOM OF AC
  493 01005  1130          TAD     MODE            /ADD MODE
  494 01006  0377          AND     (0001)          /KEEP BOTTOM BIT
  495 01007  7440          SZA                     /IS IT ZERO? 
  496 01010  5212          JMP     REINIT          /NO, MODE HAS CHANGED
  497 01011  5220          JMP     INSDEC          /YES, KEEP GOING
  498 01012  7200  REINIT, CLA
  499 01013  1130          TAD     MODE            /TOGGLE MODE
  500 01014  7040          CMA
  501 01015  0377          AND     (0001)
  502 01016  3130          DCA     MODE
  503 01017  5776@         JMP     START
  504              >
  505                      
  506                              /INSTRUCTION DECODE
  507 01020  7200  INSDEC, CLA
  508 01021  1005          TAD     OPCODE          /GET OPCODE
  509 01022  1375          TAD     (INSTLU)        /ADD BEGINNING OF TABLE
  510 01023  3116          DCA     TEMP            /STORE ADDRESS
  511 01024  1516          TAD I   TEMP            /GET SUBROUTINE ADDRESS
  512 01025  3116          DCA     TEMP            /STORE ADDRESS
  513 01026  4516          JMS I   TEMP            /JUMP TO SUBROUTINE
  514                      /JMP    READKB          /READ KEYBOARD
  515                      
  516                              /READ FROM KEYBOARD
  517 01027  6031  READKB, KSF                     /KEY IN BUFFER?
  518 01030  5774@         JMP     CHKKEY          /NO, KEY HAS BEEN READ BEFORE?
  519 01031  6036          KRB                     /READ KEY
  520 01032  0373          AND     (0177)          /KEEP 7 BITS
  521 01033  3023          DCA     KEYC            /STORE KEY IN KEYC
  522              IFNZER OS8 <
  523 01034  1023          TAD     KEYC            /GET KEY
  524 01035  1372          TAD     (-0003)         /IS IT A CTRL-C?
  525 01036  7650          SNA CLA
  526 01037  5771          JMP I   (7600)          /JUMP TO MONITOR
  527              >
  528              IFZERO STRT8 <
  529 01040  1023          TAD     KEYC
  530 01041  1370          TAD     (-0077)         /DOES THE USER NEED HELP?
  531 01042  7650          SNA CLA
  532 01043  5767@         JMP     HELP
  533              >
  534 01044  1023          TAD     KEYC            /CONVERT TO UPPERCASE
  535 01045  1366          TAD     (-0141)         /IS IT BIGGER THAN LITTLE A?
  536 01046  7510          SPA
  537 01047  5262          JMP     DECOD1          /NO, DECODE DIRECTLY
  538 01050  7200          CLA
  539 01051  1023          TAD     KEYC
  540 01052  1365          TAD     (-0173)         /IS IT BIGGER THAN LITTLE Z?



      /HP-45 AND HP-35 EMULATOR                                          Page 13


  541 01053  7510          SPA
  542 01054  7410          SKP                     /NO, CONVERT TO UPPERCASE
  543 01055  5262          JMP     DECOD1          /YES, DECODE DIRECTLY
  544 01056  7200          CLA
  545 01057  1023          TAD     KEYC
  546 01060  1364          TAD     (-0040)         /SUBTRACT 40
  547 01061  3023          DCA     KEYC
  548 01062  7200  DECOD1, CLA
  549 01063  1363          TAD     (KEYLU-2)       /GET START OF TABLE - 2
  550 01064  3010          DCA     INDEX1          /STORE IN AUTOINC INDEX
  551 01065  7200  DECOLP, CLA
  552 01066  2010          ISZ     INDEX1          /NEED TO INCREMENT BY 2
  553 01067  1410          TAD I   INDEX1          /GET KEY VALUE
  554 01070  7450          SNA                     /IS IT ZERO?
  555 01071  5762@         JMP     INVKEY          /YES, WE REACHED THE END, NO MATCH
  556 01072  1023          TAD     KEYC            /ADD KEY
  557 01073  7440          SZA                     /DO THEY MATCH?
  558 01074  5265          JMP     DECOLP          /NO, KEEP LOOPING
  559 01075  1410          TAD I   INDEX1          /YES, GET MATRIX CODE
  560 01076  3023          DCA     KEYC            /SAVE IT
  561              IFZERO STRT8 <
  562 01077  7100          CLL                     /MAKE SURE CARRY IS CLEARED
  563 01100  1130          TAD     MODE            /WHAT MODE? HP35=0, HP45=1
  564 01101  7010          RAR                     /SAVE IN CARRY
  565 01102  1023          TAD     KEYC
  566 01103  7430          SZL
  567 01104  7002          BSW                     /SWAP BYTES IF HP45
  568              >
  569              IFNZER STRT8 <
  570                      TAD     KEYC            /GET KEY VALUE
  571              >
  572 01105  0361          AND     (0077)          /KEEP BOTTOM BYTE
  573 01106  3023          DCA     KEYC
  574 01107  1023          TAD     KEYC            /IS IT VALID IN THE CURRENT MODE?
  575 01110  1370          TAD     (-0077)         /IS BOTTOM BYTE 77?
  576 01111  7450          SNA
  577 01112  5762@         JMP     INVKEY          /NO
  578 01113  5774@         JMP     CHKKEY          /YES
  579              
  580              IFZERO STRT8 <
      01161  0077
      01162  1215
      01163  4176
      01164  7740
      01165  7605
      01166  7637
      01167  1206
      01170  7701
      01171  7600
      01172  7775



      /HP-45 AND HP-35 EMULATOR                                          Page 14


      01173  0177
      01174  1220
      01175  5000
      01176  0204
      01177  0001
  581                      PAGE
  582              >
  583              
  584 01200  0000  PRINT,  0000                    /PRINT CHARACTER IN A
  585 01201  6046          TLS
  586 01202  6041          TSF
  587 01203  5202          JMP     .-1
  588 01204  7200          CLA
  589 01205  5600          JMP I   PRINT
  590                      
  591              IFZERO STRT8 <
  592 01206  4777@ HELP,   JMS     SBNLCR          /PRINT NL AND CR
  593 01207  1376          TAD     (KEYMSG-1)      /PRINT HELP MESSAGE
  594 01210  3010          DCA     INDEX1
  595 01211  4775@         JMS     TXTPRN
  596 01212  7040          CMA
  597 01213  3013          DCA     UPDATE          /UPDATE DISPLAY
  598 01214  3012          DCA     DISPEN          /ENABLE DISPLAY
  599              >
  600 01215  7240  INVKEY, CLA CMA                 /INVALID KEY
  601 01216  3023          DCA     KEYC            /KEY CODE = -1
  602 01217  5774@         JMP     DISP            /CONTINUE WITH DISPLAY
  603 01220  7200  CHKKEY, CLA
  604 01221  1023          TAD     KEYC            /HAS KEY BEEN READ PREVIOUSLY?
  605 01222  7510          SPA
  606 01223  5774@         JMP     DISP            /NO, CONTINUE WITH DISPLAY
  607 01224  3024          DCA     KEYR            /KEY ROM = KEY CODE
  608 01225  7040          CMA
  609 01226  3023          DCA     KEYC            /KEY CODE = -1
  610 01227  1033          TAD     REGS
  611 01230  0373          AND     (7776)
  612 01231  3033          DCA     REGS
  613 01232  2033          ISZ     REGS            /SET S[0]
  614 01233  3016          DCA     ERR             /CLEAR ERROR
  615 01234  5774@         JMP     DISP
  616                      
      01373  7776
      01374  1400
      01375  4061
      01376  0377
      01377  4134
  617                      PAGE
  618                      
  619                              /DISPLAY
  620 01400  7200  DISP,   CLA



      /HP-45 AND HP-35 EMULATOR                                          Page 15


  621              IFNZER DBGMOD <
  622 01401  1126          TAD     DEBUG
  623 01402  7440          SZA
  624 01403  5777@         JMP     LOOP            /DON'T PRINT DISPLAY IF DEBUG
  625              >
  626 01404  1012          TAD     DISPEN
  627 01405  7450          SNA                     /IS DISPLAY ENABLED?
  628 01406  5211          JMP     LPDISP          /NO, DOES DISP NEED UPDATE?
  629 01407  3013          DCA     UPDATE          /DISPLAY UPDATE = TRUE
  630 01410  5777@         JMP     LOOP            /BACK TO TOP
  631                      
  632 01411  1013  LPDISP, TAD     UPDATE
  633 01412  7450          SNA                     /DOES DISP NEED UPDATE?
  634 01413  5777@         JMP     LOOP            /NO, BACK TO TOP
  635 01414  7200          CLA                     /YES, UPDATE DISPLAY
  636 01415  3013          DCA     UPDATE          /DISPLAY UPDATE = FALSE
  637              IFZERO TTY <
  638 01416  1376          TAD     (0015)          /CARRIAGE RETURN
  639 01417  4775@         JMS     PRINT           /PRINT A CR
  640 01420  1374          TAD     (-0025)         /21 SPACES TO DISPLAY
  641 01421  3025          DCA     SIZE
  642 01422  1373  LPDIS1, TAD     (0040)          /SPACE
  643 01423  4775@         JMS     PRINT           /PRINT A SPACE
  644 01424  2025          ISZ     SIZE
  645 01425  5222          JMP     LPDIS1          /PRINT ALL 21
  646 01426  5227          JMP     PRCR            /PRINT CARRIAGE RETURN
  647              >
  648 01427  1376  PRCR,   TAD     (0015)          /CARRIAGE RETURN
  649 01430  4775@         JMS     PRINT           /PRINT A CR
  650              IFNZER TTY <
  651                      TAD     (0012)          /LINE FEED
  652                      JMS     PRINT
  653              >
  654 01431  1372          TAD     (-0016)         /PRINT REGISTER (14 DIGITS)
  655 01432  3025          DCA     SIZE            /SIZE = -14
  656 01433  7200  BIGLP,  CLA
  657 01434  1025          TAD     SIZE            /A = SIZE
  658 01435  7040          CMA                     /A = -SIZE - 1
  659 01436  3027          DCA     REGIDX          /INDEX FROM 13 TO 0
  660 01437  1175          TAD     [REGB]
  661 01440  3026          DCA     REGTOP
  662 01441  4771@         JMS     GETAT
  663 01442  1031          TAD     ATIO
  664 01443  0370          AND     (0010)
  665 01444  7450          SNA                     /B[I] >= 8?
  666 01445  5252          JMP     LPDIS2          /NO, CONTINUE
  667 01446  7200          CLA
  668 01447  1373          TAD     (0040)          /SPACE
  669 01450  4775@         JMS     PRINT           /PRINT A SPACE
  670 01451  5316          JMP     LPDIS9          /CONTINUE WITH FOR LOOP



      /HP-45 AND HP-35 EMULATOR                                          Page 16


  671                      
  672 01452  1367  LPDIS2, TAD     (-0002)         /IS INDEX 2?
  673 01453  1027          TAD     REGIDX
  674 01454  7450          SNA                     /NO?
  675 01455  5261          JMP     LPDIS3          /YES, PRINT '-' OR SPACE NOW
  676 01456  1366          TAD     (-0013)         /HOW ABOUT 13 DECIMAL? (02 + 013)
  677 01457  7440          SZA
  678 01460  5276          JMP     LPDIS4          /NOT 2 OR 13, SO TIME TO PRINT NUMBER   
  679 01461  1176  LPDIS3, TAD     [REGA]          /PRINT A '-' OR SPACE
  680 01462  3026          DCA     REGTOP
  681 01463  4771@         JMS     GETAT
  682 01464  1031          TAD     ATIO
  683 01465  0370          AND     (0010)          /IS A[I] >= 8?
  684 01466  7440          SZA
  685 01467  5272          JMP     LPDIS5          /YES, PRINT A '-'
  686 01470  1373          TAD     (0040)          /NO, PRINT A SPACE
  687 01471  5274          JMP     LPDIS6          /PRINT IT       
  688 01472  7200  LPDIS5, CLA
  689 01473  1365          TAD     (0055)          /'-'
  690 01474  4775@ LPDIS6, JMS     PRINT           /PRINT IT
  691 01475  5305          JMP     LPDIS7          /SEE IF '.' NEEDS PRINTING
  692              
  693 01476  7200  LPDIS4, CLA                     /PRINT NUMBER
  694 01477  1176          TAD     [REGA]
  695 01500  3026          DCA     REGTOP
  696 01501  4771@         JMS     GETAT
  697 01502  1031          TAD     ATIO
  698 01503  1364          TAD     (0060)          /ADD '0'
  699 01504  4775@         JMS     PRINT           /PRINT IT
  700 01505  1175  LPDIS7, TAD     [REGB]          /PRINT '.'?
  701 01506  3026          DCA     REGTOP
  702 01507  4771@         JMS     GETAT
  703 01510  1367          TAD     (-0002)         /IS B[I] == 2?
  704 01511  1031          TAD     ATIO
  705 01512  7440          SZA
  706 01513  5316          JMP     LPDIS9          /NO, CONTINUE
  707 01514  1363          TAD     (0056)          /YES, PRINT '.'
  708 01515  4775@         JMS     PRINT           /PRINT IT
  709 01516  2025  LPDIS9, ISZ     SIZE
  710 01517  5233          JMP     BIGLP           /CONTINUE WITH FOR LOOP
  711 01520  7200  LPDIS8, CLA                     /ERROR?
  712 01521  1016          TAD     ERR
  713 01522  7450          SNA
  714 01523  5777@         JMP     LOOP            /NO ERROR, BACK TO TOP
  715 01524  7200          CLA
  716 01525  1362          TAD     (-0006)         /PRINT " ERROR"
  717 01526  3025          DCA     SIZE
  718 01527  1361          TAD     (ERRMSG-1)
  719 01530  3010          DCA     INDEX1
  720 01531  1410  ERRLP,  TAD I   INDEX1



      /HP-45 AND HP-35 EMULATOR                                          Page 17


  721 01532  4775@         JMS     PRINT
  722 01533  2025          ISZ     SIZE
  723 01534  5331          JMP     ERRLP           /KEEP PRINTING
  724 01535  5777@         JMP     LOOP            /BACK TO TOP
  725              
  726 01536  0040  ERRMSG, 0040                    /' '
  727 01537  0105          0105                    /'E'
  728 01540  0122          0122                    /'R'
  729 01541  0122          0122                    /'R'
  730 01542  0117          0117                    /'O'
  731 01543  0122          0122                    /'R'
  732                      
      01561  1535
      01562  7772
      01563  0056
      01564  0060
      01565  0055
      01566  7765
      01567  7776
      01570  0010
      01571  3236
      01572  7762
      01573  0040
      01574  7753
      01575  1200
      01576  0015
      01577  0600
  733                      PAGE
  734              
  735 01600  0000  OPNOP,  0000                    /NO OPERATION
  736 01601  5600          JMP I   OPNOP
  737                      
  738 01602  0000  ERROR,  0000
  739 01603  7402          HLT
  740 01604  5602          JMP I   ERROR
  741                      
  742 01605  0000  ARITH,  0000
  743 01606  7300          CLA CLL
  744 01607  4777@         JMS     GETFL           /GET FIRST AND LAST
  745 01610  3014          DCA     CARRY           /CLEAR CARRY
  746 01611  3117          DCA     BYTE1           /CLEAR BYTE1
  747 01612  1005          TAD     OPCODE
  748 01613  7012          RTR
  749 01614  7012          RTR
  750 01615  7010          RAR
  751 01616  0376          AND     (0037)          /SHIFT RIGHT 5
  752 01617  3032          DCA     DECODE          /GET AR OPERATION
  753 01620  1032          TAD     DECODE          /SET CARRY IF BOTTOM TWO BITS SET
  754 01621  0375          AND     (0003)
  755 01622  7041          CMA IAC



      /HP-45 AND HP-35 EMULATOR                                          Page 18


  756 01623  1375          TAD     (0003)
  757 01624  7440          SZA                     /ARE BOTTOM TWO SET?
  758 01625  5230          JMP     ARITH1          /NO
  759 01626  7240          CLA CMA                 /YES,
  760 01627  3014          DCA     CARRY           /SET CARRY
  761 01630  7200  ARITH1, CLA                     /INITIALIZE INDEX
  762 01631  1006          TAD     FIRST
  763 01632  3027          DCA     REGIDX          /SET INDEX TO FIRST
  764 01633  7200  ARITH2, CLA
  765 01634  1374          TAD     (ARLOOK)
  766 01635  1032          TAD     DECODE
  767 01636  3116          DCA     TEMP
  768 01637  1516          TAD I   TEMP
  769 01640  3116          DCA     TEMP
  770 01641  4516          JMS I   TEMP
  771 01642  2027          ISZ     REGIDX          /INCREMENT INDEX
  772 01643  7200          CLA
  773 01644  1027          TAD     REGIDX          /IS INDEX == LAST + 1?
  774 01645  7041          CMA IAC
  775 01646  1007          TAD     LAST
  776 01647  7001          IAC
  777 01650  7440          SZA
  778 01651  5233          JMP     ARITH2          /NO, CONTINUE
  779 01652  5605          JMP I   ARITH           /YES, RETURN
  780 01653  1713  ARLOOK, AR00
  781 01654  1723          AR01
  782 01655  1731          AR02
  783 01656  1746          AR03
  784 01657  2000          AR04
  785 01660  2010          AR05
  786 01661  2024          AR06
  787 01662  2032          AR07
  788 01663  2046          AR08
  789 01664  2062          AR09
  790 01665  2072          AR0A
  791 01666  2112          AR0B
  792 01667  2126          AR0C
  793 01670  2136          AR0D
  794 01671  2146          AR0E
  795 01672  2200          AR0F
  796 01673  2214          AR10
  797 01674  2231          AR11
  798 01675  2253          AR12
  799 01676  2276          AR13
  800 01677  2310          AR14
  801 01700  2333          AR15
  802 01701  2350          AR16
  803 01702  2400          AR17
  804 01703  2407          AR18
  805 01704  2427          AR19



      /HP-45 AND HP-35 EMULATOR                                          Page 19


  806 01705  2451          AR1A
  807 01706  2471          AR1B
  808 01707  2505          AR1C
  809 01710  2600          AR1D
  810 01711  2622          AR1E
  811 01712  2642          AR1F
  812              
  813 01713  0000  AR00,   0000                    /0 + B
  814 01714  1175          TAD     [REGB]
  815 01715  3026          DCA     REGTOP
  816 01716  4773@         JMS     GETAT
  817 01717  1014          TAD     CARRY
  818 01720  1031          TAD     ATIO
  819 01721  3014          DCA     CARRY
  820 01722  5713          JMP I   AR00
  821                      
  822 01723  0000  AR01,   0000                    /B = 0
  823 01724  1175          TAD     [REGB]
  824 01725  3026          DCA     REGTOP
  825 01726  3031          DCA     ATIO
  826 01727  4772@         JMS     STORAT
  827 01730  5723          JMP I   AR01
  828                      
  829 01731  0000  AR02,   0000                    /A - C
  830 01732  1176          TAD     [REGA]
  831 01733  3026          DCA     REGTOP
  832 01734  4773@         JMS     GETAT
  833 01735  1031          TAD     ATIO
  834 01736  3117          DCA     BYTE1
  835 01737  1174          TAD     [REGC]
  836 01740  3026          DCA     REGTOP
  837 01741  4773@         JMS     GETAT
  838 01742  1031          TAD     ATIO
  839 01743  3120          DCA     BYTE2
  840 01744  4771@         JMS     DOSUB
  841 01745  5731          JMP I   AR02
  842                      
  843 01746  0000  AR03,   0000                    /C - 1
  844 01747  1174          TAD     [REGC]
  845 01750  3026          DCA     REGTOP
  846 01751  4773@         JMS     GETAT
  847 01752  1031          TAD     ATIO
  848 01753  7450          SNA
  849 01754  5746          JMP I   AR03
  850 01755  7200          CLA
  851 01756  3014          DCA     CARRY
  852 01757  5746          JMP I   AR03
  853                      
      01771  3000
      01772  3252



      /HP-45 AND HP-35 EMULATOR                                          Page 20


      01773  3236
      01774  1653
      01775  0003
      01776  0037
      01777  2656
  854                      PAGE
  855                      
  856 02000  0000  AR04,   0000                    /C = B
  857 02001  1175          TAD     [REGB]
  858 02002  3026          DCA     REGTOP
  859 02003  4777@         JMS     GETAT
  860 02004  1174          TAD     [REGC]
  861 02005  3026          DCA     REGTOP
  862 02006  4776@         JMS     STORAT
  863 02007  5600          JMP I   AR04
  864                      
  865 02010  0000  AR05,   0000                    /C = 0 - C
  866 02011  1174          TAD     [REGC]
  867 02012  3026          DCA     REGTOP
  868 02013  4777@         JMS     GETAT
  869 02014  1031          TAD     ATIO
  870 02015  3120          DCA     BYTE2
  871 02016  3117          DCA     BYTE1
  872 02017  4775@         JMS     DOSUB
  873 02020  1121          TAD     RESULT
  874 02021  3031          DCA     ATIO
  875 02022  4776@         JMS     STORAT
  876 02023  5610          JMP I   AR05
  877                      
  878 02024  0000  AR06,   0000                    /C = 0
  879 02025  1174          TAD     [REGC]
  880 02026  3026          DCA     REGTOP
  881 02027  3031          DCA     ATIO
  882 02030  4776@         JMS     STORAT
  883 02031  5624          JMP I   AR06
  884                      
  885 02032  0000  AR07,   0000                    /C = 0 - C - 1
  886 02033  1174          TAD     [REGC]
  887 02034  3026          DCA     REGTOP
  888 02035  4777@         JMS     GETAT
  889 02036  1031          TAD     ATIO
  890 02037  3120          DCA     BYTE2
  891 02040  3117          DCA     BYTE1
  892 02041  4775@         JMS     DOSUB
  893 02042  1121          TAD     RESULT
  894 02043  3031          DCA     ATIO
  895 02044  4776@         JMS     STORAT
  896 02045  5632          JMP I   AR07
  897                      
  898 02046  0000  AR08,   0000                    /SHIFT LEFT A



      /HP-45 AND HP-35 EMULATOR                                          Page 21


  899 02047  1176          TAD     [REGA]
  900 02050  3026          DCA     REGTOP
  901 02051  4777@         JMS     GETAT
  902 02052  1031          TAD     ATIO
  903 02053  3120          DCA     BYTE2
  904 02054  1117          TAD     BYTE1
  905 02055  3031          DCA     ATIO
  906 02056  4776@         JMS     STORAT
  907 02057  1120          TAD     BYTE2
  908 02060  3117          DCA     BYTE1
  909 02061  5646          JMP I   AR08
  910                      
  911 02062  0000  AR09,   0000                    /B = A
  912 02063  1176          TAD     [REGA]
  913 02064  3026          DCA     REGTOP
  914 02065  4777@         JMS     GETAT
  915 02066  1175          TAD     [REGB]
  916 02067  3026          DCA     REGTOP
  917 02070  4776@         JMS     STORAT
  918 02071  5662          JMP I   AR09
  919                      
  920 02072  0000  AR0A,   0000                    /C = A - C
  921 02073  1176          TAD     [REGA]
  922 02074  3026          DCA     REGTOP
  923 02075  4777@         JMS     GETAT
  924 02076  1031          TAD     ATIO
  925 02077  3117          DCA     BYTE1
  926 02100  1174          TAD     [REGC]
  927 02101  3026          DCA     REGTOP
  928 02102  4777@         JMS     GETAT
  929 02103  1031          TAD     ATIO
  930 02104  3120          DCA     BYTE2
  931 02105  4775@         JMS     DOSUB
  932 02106  1121          TAD     RESULT
  933 02107  3031          DCA     ATIO
  934 02110  4776@         JMS     STORAT
  935 02111  5672          JMP I   AR0A
  936                      
  937 02112  0000  AR0B,   0000                    /C = C - 1
  938 02113  1174          TAD     [REGC]
  939 02114  3026          DCA     REGTOP
  940 02115  3120          DCA     BYTE2
  941 02116  4777@         JMS     GETAT
  942 02117  1031          TAD     ATIO
  943 02120  3117          DCA     BYTE1
  944 02121  4775@         JMS     DOSUB
  945 02122  1121          TAD     RESULT
  946 02123  3031          DCA     ATIO
  947 02124  4776@         JMS     STORAT
  948 02125  5712          JMP I   AR0B



      /HP-45 AND HP-35 EMULATOR                                          Page 22


  949                      
  950 02126  0000  AR0C,   0000                    /A = C
  951 02127  1174          TAD     [REGC]
  952 02130  3026          DCA     REGTOP
  953 02131  4777@         JMS     GETAT
  954 02132  1176          TAD     [REGA]
  955 02133  3026          DCA     REGTOP
  956 02134  4776@         JMS     STORAT
  957 02135  5726          JMP I   AR0C
  958                      
  959 02136  0000  AR0D,   0000                    /0 - C
  960 02137  1174          TAD     [REGC]
  961 02140  3026          DCA     REGTOP
  962 02141  4777@         JMS     GETAT
  963 02142  1031          TAD     ATIO
  964 02143  1014          TAD     CARRY
  965 02144  3014          DCA     CARRY
  966 02145  5736          JMP I   AR0D
  967                      
  968 02146  0000  AR0E,   0000                    /C = A + C
  969 02147  1176          TAD     [REGA]
  970 02150  3026          DCA     REGTOP
  971 02151  4777@         JMS     GETAT
  972 02152  1031          TAD     ATIO
  973 02153  3117          DCA     BYTE1
  974 02154  1174          TAD     [REGC]
  975 02155  3026          DCA     REGTOP
  976 02156  4777@         JMS     GETAT
  977 02157  1031          TAD     ATIO
  978 02160  3120          DCA     BYTE2
  979 02161  4774@         JMS     DOADD
  980 02162  1121          TAD     RESULT
  981 02163  3031          DCA     ATIO
  982 02164  4776@         JMS     STORAT
  983 02165  5746          JMP I   AR0E
  984                      
      02174  2727
      02175  3000
      02176  3252
      02177  3236
  985                      PAGE
  986                      
  987 02200  0000  AR0F,   0000                    /C = C + 1
  988 02201  1174          TAD     [REGC]
  989 02202  3026          DCA     REGTOP
  990 02203  4777@         JMS     GETAT
  991 02204  1031          TAD     ATIO
  992 02205  3117          DCA     BYTE1
  993 02206  3120          DCA     BYTE2
  994 02207  4776@         JMS     DOADD



      /HP-45 AND HP-35 EMULATOR                                          Page 23


  995 02210  1121          TAD     RESULT
  996 02211  3031          DCA     ATIO
  997 02212  4775@         JMS     STORAT
  998 02213  5600          JMP I   AR0F
  999                      
 1000 02214  0000  AR10,   0000                    /A - B
 1001 02215  1176          TAD     [REGA]
 1002 02216  3026          DCA     REGTOP
 1003 02217  4777@         JMS     GETAT
 1004 02220  1031          TAD     ATIO
 1005 02221  3117          DCA     BYTE1
 1006 02222  1175          TAD     [REGB]
 1007 02223  3026          DCA     REGTOP
 1008 02224  4777@         JMS     GETAT
 1009 02225  1031          TAD     ATIO
 1010 02226  3120          DCA     BYTE2
 1011 02227  4774@         JMS     DOSUB
 1012 02230  5614          JMP I   AR10
 1013                      
 1014 02231  0000  AR11,   0000                    /B <> C
 1015 02232  1175          TAD     [REGB]
 1016 02233  3026          DCA     REGTOP
 1017 02234  4777@         JMS     GETAT
 1018 02235  1031          TAD     ATIO
 1019 02236  3117          DCA     BYTE1
 1020 02237  1174          TAD     [REGC]
 1021 02240  3026          DCA     REGTOP
 1022 02241  4777@         JMS     GETAT
 1023 02242  1175          TAD     [REGB]
 1024 02243  3026          DCA     REGTOP
 1025 02244  4775@         JMS     STORAT
 1026 02245  1117          TAD     BYTE1
 1027 02246  3031          DCA     ATIO
 1028 02247  1174          TAD     [REGC]
 1029 02250  3026          DCA     REGTOP
 1030 02251  4775@         JMS     STORAT
 1031 02252  5631          JMP I   AR11
 1032                      
 1033 02253  0000  AR12,   0000                    /SHIFT RIGHT C
 1034 02254  1174          TAD     [REGC]
 1035 02255  3026          DCA     REGTOP
 1036 02256  1027          TAD     REGIDX
 1037 02257  7041          CMA IAC
 1038 02260  1007          TAD     LAST
 1039 02261  7440          SZA
 1040 02262  5266          JMP     AR121
 1041 02263  3031          DCA     ATIO
 1042 02264  4775@ AR122,  JMS     STORAT
 1043 02265  5653          JMP I   AR12
 1044 02266  7200  AR121,  CLA



      /HP-45 AND HP-35 EMULATOR                                          Page 24


 1045 02267  1027          TAD     REGIDX
 1046 02270  3116          DCA     TEMP
 1047 02271  2027          ISZ     REGIDX
 1048 02272  4777@         JMS     GETAT
 1049 02273  1116          TAD     TEMP
 1050 02274  3027          DCA     REGIDX
 1051 02275  5264          JMP     AR122
 1052                      
 1053 02276  0000  AR13,   0000                    /A - 1
 1054 02277  1176          TAD     [REGA]
 1055 02300  3026          DCA     REGTOP
 1056 02301  4777@         JMS     GETAT
 1057 02302  1031          TAD     ATIO
 1058 02303  7450          SNA
 1059 02304  5676          JMP I   AR13
 1060 02305  7200          CLA
 1061 02306  3014          DCA     CARRY
 1062 02307  5676          JMP I   AR13
 1063                      
 1064 02310  0000  AR14,   0000                    /SHIFT RIGHT B
 1065 02311  1175          TAD     [REGB]
 1066 02312  3026          DCA     REGTOP
 1067 02313  1027          TAD     REGIDX
 1068 02314  7041          CMA IAC
 1069 02315  1007          TAD     LAST
 1070 02316  7440          SZA
 1071 02317  5323          JMP     AR141
 1072 02320  3031          DCA     ATIO
 1073 02321  4775@ AR142,  JMS     STORAT
 1074 02322  5710          JMP I   AR14
 1075 02323  7200  AR141,  CLA
 1076 02324  1027          TAD     REGIDX
 1077 02325  3116          DCA     TEMP
 1078 02326  2027          ISZ     REGIDX
 1079 02327  4777@         JMS     GETAT
 1080 02330  1116          TAD     TEMP
 1081 02331  3027          DCA     REGIDX
 1082 02332  5321          JMP     AR142
 1083                      
 1084 02333  0000  AR15,   0000                    /C = C + C
 1085 02334  1174          TAD     [REGC]
 1086 02335  3026          DCA     REGTOP
 1087 02336  4777@         JMS     GETAT
 1088 02337  1031          TAD     ATIO
 1089 02340  3117          DCA     BYTE1
 1090 02341  1031          TAD     ATIO
 1091 02342  3120          DCA     BYTE2
 1092 02343  4776@         JMS     DOADD
 1093 02344  1121          TAD     RESULT
 1094 02345  3031          DCA     ATIO



      /HP-45 AND HP-35 EMULATOR                                          Page 25


 1095 02346  4775@         JMS     STORAT
 1096 02347  5733          JMP I   AR15
 1097                      
 1098 02350  0000  AR16,   0000                    /SHIFT RIGHT A
 1099 02351  1176          TAD     [REGA]
 1100 02352  3026          DCA     REGTOP
 1101 02353  1027          TAD     REGIDX
 1102 02354  7041          CMA IAC
 1103 02355  1007          TAD     LAST
 1104 02356  7440          SZA
 1105 02357  5363          JMP     AR161
 1106 02360  3031          DCA     ATIO
 1107 02361  4775@ AR162,  JMS     STORAT
 1108 02362  5750          JMP I   AR16
 1109 02363  7200  AR161,  CLA
 1110 02364  1027          TAD     REGIDX
 1111 02365  3116          DCA     TEMP
 1112 02366  2027          ISZ     REGIDX
 1113 02367  4777@         JMS     GETAT
 1114 02370  1116          TAD     TEMP
 1115 02371  3027          DCA     REGIDX
 1116 02372  5361          JMP     AR162
 1117                      
      02374  3000
      02375  3252
      02376  2727
      02377  3236
 1118                      PAGE
 1119                      
 1120 02400  0000  AR17,   0000                    /A = 0
 1121 02401  1176          TAD     [REGA]
 1122 02402  3026          DCA     REGTOP
 1123 02403  3014          DCA     CARRY
 1124 02404  3031          DCA     ATIO
 1125 02405  4777@         JMS     STORAT
 1126 02406  5600          JMP I   AR17
 1127                      
 1128 02407  0000  AR18,   0000                    /A = A - B
 1129 02410  1175          TAD     [REGB]
 1130 02411  3026          DCA     REGTOP
 1131 02412  4776@         JMS     GETAT
 1132 02413  1031          TAD     ATIO
 1133 02414  3120          DCA     BYTE2
 1134 02415  1176          TAD     [REGA]
 1135 02416  3026          DCA     REGTOP
 1136 02417  4776@         JMS     GETAT
 1137 02420  1031          TAD     ATIO
 1138 02421  3117          DCA     BYTE1
 1139 02422  4775@         JMS     DOSUB
 1140 02423  1121          TAD     RESULT



      /HP-45 AND HP-35 EMULATOR                                          Page 26


 1141 02424  3031          DCA     ATIO
 1142 02425  4777@         JMS     STORAT
 1143 02426  5607          JMP I   AR18
 1144                      
 1145 02427  0000  AR19,   0000                    /A <> B
 1146 02430  1176          TAD     [REGA]
 1147 02431  3026          DCA     REGTOP
 1148 02432  4776@         JMS     GETAT
 1149 02433  1031          TAD     ATIO
 1150 02434  3117          DCA     BYTE1
 1151 02435  1175          TAD     [REGB]
 1152 02436  3026          DCA     REGTOP
 1153 02437  4776@         JMS     GETAT
 1154 02440  1176          TAD     [REGA]
 1155 02441  3026          DCA     REGTOP
 1156 02442  4777@         JMS     STORAT
 1157 02443  1117          TAD     BYTE1
 1158 02444  3031          DCA     ATIO
 1159 02445  1175          TAD     [REGB]
 1160 02446  3026          DCA     REGTOP
 1161 02447  4777@         JMS     STORAT
 1162 02450  5627          JMP I   AR19
 1163                      
 1164 02451  0000  AR1A,   0000                    /A = A - C
 1165 02452  1174          TAD     [REGC]
 1166 02453  3026          DCA     REGTOP
 1167 02454  4776@         JMS     GETAT
 1168 02455  1031          TAD     ATIO
 1169 02456  3120          DCA     BYTE2
 1170 02457  1176          TAD     [REGA]
 1171 02460  3026          DCA     REGTOP
 1172 02461  4776@         JMS     GETAT
 1173 02462  1031          TAD     ATIO
 1174 02463  3117          DCA     BYTE1
 1175 02464  4775@         JMS     DOSUB
 1176 02465  1121          TAD     RESULT
 1177 02466  3031          DCA     ATIO
 1178 02467  4777@         JMS     STORAT
 1179 02470  5651          JMP I   AR1A
 1180                      
 1181 02471  0000  AR1B,   0000                    /A = A - 1
 1182 02472  1176          TAD     [REGA]
 1183 02473  3026          DCA     REGTOP
 1184 02474  3120          DCA     BYTE2
 1185 02475  4776@         JMS     GETAT
 1186 02476  1031          TAD     ATIO
 1187 02477  3117          DCA     BYTE1
 1188 02500  4775@         JMS     DOSUB
 1189 02501  1121          TAD     RESULT
 1190 02502  3031          DCA     ATIO



      /HP-45 AND HP-35 EMULATOR                                          Page 27


 1191 02503  4777@         JMS     STORAT
 1192 02504  5671          JMP I   AR1B
 1193                      
 1194 02505  0000  AR1C,   0000                    /A = A + B
 1195 02506  1175          TAD     [REGB]
 1196 02507  3026          DCA     REGTOP
 1197 02510  4776@         JMS     GETAT
 1198 02511  1031          TAD     ATIO
 1199 02512  3120          DCA     BYTE2
 1200 02513  1176          TAD     [REGA]
 1201 02514  3026          DCA     REGTOP
 1202 02515  4776@         JMS     GETAT
 1203 02516  1031          TAD     ATIO
 1204 02517  3117          DCA     BYTE1
 1205 02520  4774@         JMS     DOADD
 1206 02521  1121          TAD     RESULT
 1207 02522  3031          DCA     ATIO
 1208 02523  4777@         JMS     STORAT
 1209 02524  5705          JMP I   AR1C
 1210                      
      02574  2727
      02575  3000
      02576  3236
      02577  3252
 1211                      PAGE
 1212                      
 1213 02600  0000  AR1D,   0000                    /A <> C
 1214 02601  1176          TAD     [REGA]
 1215 02602  3026          DCA     REGTOP
 1216 02603  4777@         JMS     GETAT
 1217 02604  1031          TAD     ATIO
 1218 02605  3117          DCA     BYTE1
 1219 02606  1174          TAD     [REGC]
 1220 02607  3026          DCA     REGTOP
 1221 02610  4777@         JMS     GETAT
 1222 02611  1176          TAD     [REGA]
 1223 02612  3026          DCA     REGTOP
 1224 02613  4776@         JMS     STORAT
 1225 02614  1117          TAD     BYTE1
 1226 02615  3031          DCA     ATIO
 1227 02616  1174          TAD     [REGC]
 1228 02617  3026          DCA     REGTOP
 1229 02620  4776@         JMS     STORAT
 1230 02621  5600          JMP I   AR1D
 1231                      
 1232 02622  0000  AR1E,   0000                    /A = A + C
 1233 02623  1174          TAD     [REGC]
 1234 02624  3026          DCA     REGTOP
 1235 02625  4777@         JMS     GETAT
 1236 02626  1031          TAD     ATIO



      /HP-45 AND HP-35 EMULATOR                                          Page 28


 1237 02627  3120          DCA     BYTE2
 1238 02630  1176          TAD     [REGA]
 1239 02631  3026          DCA     REGTOP
 1240 02632  4777@         JMS     GETAT
 1241 02633  1031          TAD     ATIO
 1242 02634  3117          DCA     BYTE1
 1243 02635  4327          JMS     DOADD
 1244 02636  1121          TAD     RESULT
 1245 02637  3031          DCA     ATIO
 1246 02640  4776@         JMS     STORAT
 1247 02641  5622          JMP I   AR1E
 1248                      
 1249 02642  0000  AR1F,   0000                    /A = A + 1
 1250 02643  1176          TAD     [REGA]
 1251 02644  3026          DCA     REGTOP
 1252 02645  3120          DCA     BYTE2
 1253 02646  4777@         JMS     GETAT
 1254 02647  1031          TAD     ATIO
 1255 02650  3117          DCA     BYTE1
 1256 02651  4327          JMS     DOADD
 1257 02652  1121          TAD     RESULT
 1258 02653  3031          DCA     ATIO
 1259 02654  4776@         JMS     STORAT
 1260 02655  5642          JMP I   AR1F
 1261                      
 1262 02656  0000  GETFL,  0000
 1263 02657  7300          CLA CLL
 1264 02660  1005          TAD     OPCODE
 1265 02661  0172          AND     [0034]          /ONLY KEEP FL PORTION
 1266 02662  7012          RTR
 1267 02663  3032          DCA     DECODE          /SAVE IN DECODE
 1268 02664  1032          TAD     DECODE
 1269 02665  7440          SZA                     /IS IT ZERO?
 1270 02666  5274          JMP     GETFL1          /NOT ZERO
 1271 02667  1002          TAD     P
 1272 02670  3006          DCA     FIRST
 1273 02671  1002          TAD     P
 1274 02672  3007          DCA     LAST
 1275 02673  5656          JMP I   GETFL
 1276 02674  7012  GETFL1, RTR
 1277 02675  7010          RAR
 1278 02676  7440          SZA                     /IS IT 4?
 1279 02677  5304          JMP     GETFL2          /NOT 4
 1280 02700  3006          DCA     FIRST
 1281 02701  1002          TAD     P
 1282 02702  3007          DCA     LAST
 1283 02703  5656          JMP I   GETFL
 1284 02704  7200  GETFL2, CLA
 1285 02705  1032          TAD     DECODE
 1286 02706  1375          TAD     (FL1-1)



      /HP-45 AND HP-35 EMULATOR                                          Page 29


 1287 02707  3032          DCA     DECODE
 1288 02710  1432          TAD I   DECODE
 1289 02711  0171          AND     [0017]
 1290 02712  3007          DCA     LAST
 1291 02713  1432          TAD I   DECODE
 1292              IFZERO STRT8 <
 1293 02714  7002          BSW
 1294              >
 1295              IFNZER STRT8 <
 1296                      RTR
 1297                      RTR
 1298                      RTR
 1299              >
 1300 02715  0171          AND     [0017]
 1301 02716  3006          DCA     FIRST
 1302 02717  5656          JMP I   GETFL
 1303 02720  0314  FL1,    0314
 1304 02721  0002  FL2,    0002
 1305 02722  0015  FL3,    0015
 1306 02723  0000          0000
 1307 02724  0315  FL5,    0315
 1308 02725  0202  FL6,    0202
 1309 02726  1515  FL7,    1515
 1310                      
 1311 02727  0000  DOADD,  0000
 1312 02730  7300          CLA CLL
 1313 02731  1117          TAD     BYTE1
 1314 02732  1120          TAD     BYTE2
 1315 02733  3121          DCA     RESULT
 1316 02734  1014          TAD     CARRY           /IS CARRY SET?
 1317 02735  7440          SZA
 1318 02736  2121          ISZ     RESULT          /INCREMENT IF CARRY
 1319 02737  7200          CLA
 1320 02740  1121          TAD     RESULT
 1321 02741  1374          TAD     (-0012)
 1322 02742  7510          SPA                     /RESULT < 0?
 1323 02743  5350          JMP     DOADD1          /NO
 1324 02744  3121          DCA     RESULT
 1325 02745  7040          CMA
 1326 02746  3014  DOADD2, DCA     CARRY
 1327 02747  5727          JMP I   DOADD
 1328 02750  7200  DOADD1, CLA
 1329 02751  5346          JMP     DOADD2
 1330                      
      02774  7766
      02775  2717
      02776  3252
      02777  3236
 1331                      PAGE
 1332                      



      /HP-45 AND HP-35 EMULATOR                                          Page 30


 1333 03000  0000  DOSUB,  0000
 1334 03001  7300          CLA CLL
 1335 03002  1014          TAD     CARRY
 1336 03003  7450          SNA
 1337 03004  5206          JMP     DOSUB1          /NO CARRY
 1338 03005  7201          CLA IAC
 1339 03006  1120  DOSUB1, TAD     BYTE2           /ADD CARRY TO Y
 1340 03007  7041          CMA IAC                 /TWO'S COMPLEMENT (CARRY + Y)
 1341 03010  1117          TAD     BYTE1           /A = X - Y - CARRY
 1342 03011  3121          DCA     RESULT
 1343 03012  1121          TAD     RESULT
 1344 03013  7500          SMA                     /RESULT NEGATIVE?
 1345 03014  5221          JMP     DOSUB2          /NO
 1346 03015  1377          TAD     (0012)          /YES, ADD 10 TO RESULT
 1347 03016  3121          DCA     RESULT
 1348 03017  7240          CLA CMA                 /SET CARRY
 1349 03020  5222          JMP     DOSUB3
 1350 03021  7200  DOSUB2, CLA                     /CLEAR CARRY
 1351 03022  3014  DOSUB3, DCA     CARRY
 1352 03023  5600          JMP I   DOSUB
 1353                      
 1354 03024  0000  JSB,    0000                    /JUMP TO SUBROUTINE
 1355 03025  7300          CLA CLL
 1356 03026  1020          TAD     PC
 1357 03027  3004          DCA     RET             /RET = PC
 1358 03030  1005          TAD     OPCODE
 1359 03031  7012          RTR                     /GET TOP 8 BITS OF OPCODE
 1360 03032  0177          AND     [0377]
 1361 03033  3020          DCA     PC
 1362 03034  1021          TAD     DELROM
 1363 03035  3003          DCA     ROM
 1364 03036  5624          JMP I   JSB
 1365                      
 1366 03037  0000  GOTO,   0000
 1367 03040  7200          CLA
 1368 03041  1015          TAD     PCARRY
 1369 03042  7440          SZA
 1370 03043  5637          JMP I   GOTO
 1371 03044  7300          CLA CLL
 1372 03045  1005          TAD     OPCODE          /SHIFT OPCODE RIGHT 2
 1373 03046  7012          RTR
 1374 03047  0177          AND     [0377]
 1375 03050  3020          DCA     PC
 1376 03051  1021          TAD     DELROM
 1377 03052  3003          DCA     ROM
 1378 03053  5637          JMP I   GOTO
 1379                      
 1380 03054  0000  SELROM, 0000
 1381 03055  7300          CLA CLL
 1382 03056  1005          TAD     OPCODE



      /HP-45 AND HP-35 EMULATOR                                          Page 31


 1383 03057  7006          RTL
 1384 03060  7006          RTL
 1385 03061  7006          RTL
 1386 03062  0170          AND     [0007]
 1387 03063  3003          DCA     ROM
 1388 03064  1003          TAD     ROM
 1389 03065  3021          DCA     DELROM
 1390 03066  5654          JMP I   SELROM
 1391                      
 1392 03067  0000  SETP,   0000
 1393 03070  4776@         JMS     TPFOUR
 1394 03071  3002          DCA     P               /P = TOP FOUR OF OPCODE
 1395 03072  5667          JMP I   SETP
 1396                      
 1397 03073  0000  DSROM,  0000
 1398 03074  7300          CLA CLL
 1399 03075  1005          TAD     OPCODE
 1400 03076  7006          RTL
 1401 03077  7006          RTL
 1402 03100  7006          RTL
 1403 03101  0170          AND     [0007]
 1404 03102  3021          DCA     DELROM
 1405 03103  5673          JMP I   DSROM
 1406                      
 1407 03104  0000  LDCONS, 0000
 1408 03105  1002          TAD     P
 1409 03106  1375          TAD     (-0016)
 1410 03107  7500          SMA
 1411 03110  5320          JMP     LDCST1
 1412 03111  4776@         JMS     TPFOUR
 1413 03112  3031          DCA     ATIO
 1414 03113  1002          TAD     P
 1415 03114  3027          DCA     REGIDX
 1416 03115  1174          TAD     [REGC]
 1417 03116  3026          DCA     REGTOP
 1418 03117  4774@         JMS     STORAT
 1419 03120  4773@ LDCST1, JMS     DECP
 1420 03121  5704          JMP I   LDCONS
 1421                      
 1422 03122  0000  SETS,   0000
 1423 03123  4776@         JMS     TPFOUR
 1424 03124  7040          CMA                     /NEGATE IT
 1425 03125  3025          DCA     SIZE            /STORE AS SIZE
 1426 03126  7344          CLA CMA CLL RAL         /A = 7776
 1427 03127  2025  SETS1,  ISZ     SIZE
 1428 03130  5332          JMP     SETS2
 1429 03131  5334          JMP     SETS3
 1430 03132  7004  SETS2,  RAL
 1431 03133  5327          JMP     SETS1
 1432 03134  3031  SETS3,  DCA     ATIO            /!MASK



      /HP-45 AND HP-35 EMULATOR                                          Page 32


 1433 03135  1033          TAD     REGS            /A = REGS
 1434 03136  7040          CMA                     /A = !REGS
 1435 03137  0031          AND     ATIO            /A = !REGS & !MASK
 1436 03140  7040          CMA                     /A = REGS + MASK
 1437 03141  3033          DCA     REGS
 1438 03142  5722          JMP I   SETS
 1439                      
 1440 03143  0000  CLRSB,  0000
 1441 03144  4776@         JMS     TPFOUR
 1442 03145  7040          CMA                     /NEGATE IT
 1443 03146  3025          DCA     SIZE            /STORE AS SIZE
 1444 03147  7344          CLA CMA CLL RAL         /A = 7776
 1445 03150  2025  CLRSB1, ISZ     SIZE
 1446 03151  5353          JMP     CLRSB2
 1447 03152  5355          JMP     CLRSB3
 1448 03153  7004  CLRSB2, RAL
 1449 03154  5350          JMP     CLRSB1
 1450 03155  3031  CLRSB3, DCA     ATIO            /MASK
 1451 03156  1031          TAD     ATIO            /A = MASK
 1452 03157  0033          AND     REGS            /A = MASK & REGS
 1453 03160  3033          DCA     REGS
 1454 03161  5743          JMP I   CLRSB
 1455                      
      03173  3274
      03174  3252
      03175  7762
      03176  3200
      03177  0012
 1456                      PAGE
 1457              
 1458 03200  0000  TPFOUR, 0000
 1459 03201  7300          CLA CLL
 1460 03202  1005          TAD     OPCODE
 1461 03203  7012          RTR
 1462 03204  7012          RTR
 1463 03205  7012          RTR
 1464 03206  0171          AND     [0017]          /GET TOP 4 BITS
 1465 03207  5600          JMP I   TPFOUR
 1466                      
 1467 03210  0000  TESTS,  0000
 1468 03211  4200          JMS     TPFOUR
 1469 03212  7040          CMA                     /NEGATE IT
 1470 03213  3025          DCA     SIZE            /STORE AS SIZE
 1471 03214  7324          CLA CLL CML RAL         /A = 0001
 1472 03215  2025  TESTS1, ISZ     SIZE
 1473 03216  5220          JMP     TESTS2
 1474 03217  5222          JMP     TESTS3
 1475 03220  7004  TESTS2, RAL
 1476 03221  5215          JMP     TESTS1
 1477 03222  0033  TESTS3, AND     REGS



      /HP-45 AND HP-35 EMULATOR                                          Page 33


 1478 03223  3014          DCA     CARRY
 1479 03224  5610          JMP I   TESTS
 1480                      
 1481 03225  0000  TESTP,  0000
 1482 03226  4200          JMS     TPFOUR
 1483 03227  7041          CMA IAC                 /A = -TOP FOUR
 1484 03230  1002          TAD     P               /A = -TOP FOUR + P
 1485 03231  7440          SZA                     /A == P?
 1486 03232  5625          JMP I   TESTP           /NO, CARRY STAYS 0
 1487 03233  7040          CMA                     /TOP FOUR == P, SET CARRY
 1488 03234  3014          DCA     CARRY
 1489 03235  5625          JMP I   TESTP
 1490                      
 1491 03236  0000  GETAT,  0000
 1492 03237  7300          CLA CLL
 1493 03240  1027          TAD     REGIDX          /LOAD INDEX VALUE
 1494 03241  7010          RAR                     /SHIFT LOW BIT INTO L
 1495 03242  1026          TAD     REGTOP          /ADD TOP OF REGISTER
 1496 03243  3030          DCA     NEWIDX          /STORE NEW INDEX
 1497 03244  1430          TAD I   NEWIDX          /FETCH WORD AT INDEX
 1498 03245  7430          SZL                     /IF L = 1, SWAP BYTES
 1499 03246  7002          BSW
 1500 03247  0171          AND     [0017]          /GET ONLY 4 BITS
 1501 03250  3031          DCA     ATIO            /SAVE 4 BITS
 1502 03251  5636          JMP I   GETAT
 1503                      
 1504 03252  0000  STORAT, 0000
 1505 03253  7300          CLA CLL
 1506 03254  1031          TAD     ATIO            /GET INPUT
 1507 03255  0171          AND     [0017]          /ENSURE IT'S 4 BITS
 1508 03256  3031          DCA     ATIO            /SAVE INPUT
 1509 03257  1027          TAD     REGIDX          /LOAD INDEX VALUE
 1510 03260  7010          RAR                     /SHIFT LOW BIT INTO L
 1511 03261  1026          TAD     REGTOP          /ADD TOP OF REGISTER
 1512 03262  3030          DCA     NEWIDX          /STORE NEW INDEX
 1513 03263  1430          TAD I   NEWIDX          /FETCH WORD AT INDEX
 1514 03264  7430          SZL                     /IF L = 1, SWAP BYTES
 1515 03265  7002          BSW                     /NEED TO RETAIN LINK
 1516 03266  0377          AND     (1700)          /CLEAR 4 BITS
 1517 03267  1031          TAD     ATIO            /PUT 4 BITS IN WORD
 1518 03270  7430          SZL                     /IF L = 1, SWAP BYTES
 1519 03271  7002          BSW
 1520 03272  3430          DCA I   NEWIDX          /PUT WORD BACK
 1521 03273  5652          JMP I   STORAT
 1522                      
 1523 03274  0000  DECP,   0000                    /DECREMENT POINTER
 1524 03275  7200          CLA
 1525 03276  1002          TAD     P               /GET P
 1526 03277  7041          CMA IAC
 1527 03300  7040          CMA                     /SUBTRACT 1



      /HP-45 AND HP-35 EMULATOR                                          Page 34


 1528 03301  0171          AND     [0017]          /P &= 0X0F
 1529 03302  3002          DCA     P               /STORE P
 1530 03303  5674          JMP I   DECP
 1531                      
 1532 03304  0000  DISPT,  0000                    /TOGGLE DISPLAY
 1533 03305  7200          CLA
 1534 03306  3012          DCA     DISPEN          /DISABLE DISPLAY
 1535 03307  3013          DCA     UPDATE          /DON'T UPDATE DISPLAY
 1536 03310  5704          JMP I   DISPT
 1537                      
 1538 03311  0000  RETS,   0000                    /RETURN FROM SUB
 1539 03312  7200          CLA
 1540 03313  1004          TAD     RET
 1541 03314  3020          DCA     PC              /PC = RET
 1542 03315  5711          JMP I   RETS
 1543                      
 1544 03316  0000  CLRS,   0000                    /CLEAR STATUS REG
 1545 03317  7200          CLA
 1546 03320  3033          DCA     REGS            /CLEAR STATUS
 1547 03321  5716          JMP I   CLRS            /CONTINUE
 1548              
 1549 03322  0000  INCP,   0000                    /INCREMENT POINTER
 1550 03323  7200          CLA
 1551 03324  1002          TAD     P               /GET P
 1552 03325  7001          IAC                     /ADD 1
 1553 03326  0171          AND     [0017]          /P &= 0X0F
 1554 03327  3002          DCA     P               /STORE P
 1555 03330  5722          JMP I   INCP    
 1556              
 1557 03331  0000  KTOROM, 0000                    /KEY TO ROM ADDR
 1558 03332  7200          CLA
 1559 03333  1024          TAD     KEYR
 1560 03334  3020          DCA     PC              /PC = KEY
 1561 03335  5731          JMP I   KTOROM
 1562                      
 1563 03336  0000  CEXCHM, 0000                    /EXCHANGE C AND M
 1564 03337  7200          CLA
 1565 03340  1376          TAD     (REGC-1)
 1566 03341  3010          DCA     INDEX1
 1567 03342  1375          TAD     (TEMP-1)
 1568 03343  3011          DCA     INDEX2
 1569 03344  4360          JMS     COPY            /COPY FROM C TO TEMP
 1570 03345  1374          TAD     (REGM-1)
 1571 03346  3010          DCA     INDEX1
 1572 03347  1376          TAD     (REGC-1)
 1573 03350  3011          DCA     INDEX2
 1574 03351  4360          JMS     COPY            /COPY FROM M TO C
 1575 03352  1375          TAD     (TEMP-1)
 1576 03353  3010          DCA     INDEX1
 1577 03354  1374          TAD     (REGM-1)



      /HP-45 AND HP-35 EMULATOR                                          Page 35


 1578 03355  3011          DCA     INDEX2
 1579 03356  4360          JMS     COPY            /COPY FROM TEMP TO M
 1580 03357  5736          JMP I   CEXCHM
 1581                      
 1582 03360  0000  COPY,   0000                    /COPY FROM INDEX1 TO INDEX2
 1583 03361  7200          CLA
 1584 03362  1373          TAD     (-0007)
 1585 03363  3025          DCA     SIZE
 1586 03364  1410  COPY1,  TAD I   INDEX1
 1587 03365  3411          DCA I   INDEX2
 1588 03366  2025          ISZ     SIZE
 1589 03367  5364          JMP     COPY1
 1590 03370  5760          JMP I   COPY
 1591                      
      03373  7771
      03374  0106
      03375  0115
      03376  0052
      03377  1700
 1592                      PAGE
 1593                      
 1594 03400  0000  PUSHC,  0000                    /PUSH C
 1595 03401  7200          CLA
 1596 03402  1377          TAD     (REGE-1)
 1597 03403  3010          DCA     INDEX1
 1598 03404  1376          TAD     (REGF-1)
 1599 03405  3011          DCA     INDEX2
 1600 03406  4775@         JMS     COPY            /COPY FROM E TO F
 1601 03407  1374          TAD     (REGD-1)
 1602 03410  3010          DCA     INDEX1
 1603 03411  1377          TAD     (REGE-1)
 1604 03412  3011          DCA     INDEX2
 1605 03413  4775@         JMS     COPY            /COPY FROM D TO E
 1606 03414  1373          TAD     (REGC-1)
 1607 03415  3010          DCA     INDEX1
 1608 03416  1374          TAD     (REGD-1)
 1609 03417  3011          DCA     INDEX2
 1610 03420  4775@         JMS     COPY            /COPY FROM C TO D
 1611 03421  5600          JMP I   PUSHC
 1612                      
 1613 03422  0000  PULLA,  0000                    /PULL A
 1614 03423  7200          CLA
 1615 03424  1374          TAD     (REGD-1)
 1616 03425  3010          DCA     INDEX1
 1617 03426  1372          TAD     (REGA-1)
 1618 03427  3011          DCA     INDEX2
 1619 03430  4775@         JMS     COPY            /COPY FROM D TO A
 1620 03431  1377          TAD     (REGE-1)
 1621 03432  3010          DCA     INDEX1
 1622 03433  1374          TAD     (REGD-1)



      /HP-45 AND HP-35 EMULATOR                                          Page 36


 1623 03434  3011          DCA     INDEX2
 1624 03435  4775@         JMS     COPY            /COPY FROM E TO D
 1625 03436  1376          TAD     (REGF-1)
 1626 03437  3010          DCA     INDEX1
 1627 03440  1377          TAD     (REGE-1)
 1628 03441  3011          DCA     INDEX2
 1629 03442  4775@         JMS     COPY            /COPY FROM F TO E
 1630 03443  5622          JMP I   PULLA
 1631                      
 1632 03444  0000  DISOFF, 0000                    /DISPLAY OFF
 1633 03445  7200          CLA
 1634 03446  1012          TAD     DISPEN          /GET DISPLAY ENABLE
 1635 03447  7040          CMA                     /INVERT IT
 1636 03450  7440          SZA                     /IS DISPLAY ENABLED?
 1637 03451  2013          ISZ     UPDATE          /YES, UPDATE DISPLAY
 1638 03452  3012          DCA     DISPEN          /SAVE DISPLAY ENABLE
 1639 03453  5644          JMP I   DISOFF
 1640                      
 1641 03454  0000  MTOC,   0000                    /COPY M TO C
 1642 03455  7200          CLA
 1643 03456  1371          TAD     (REGM-1)
 1644 03457  3010          DCA     INDEX1
 1645 03460  1373          TAD     (REGC-1)
 1646 03461  3011          DCA     INDEX2
 1647 03462  4775@         JMS     COPY            /COPY FROM M TO C
 1648 03463  5654          JMP I   MTOC
 1649                      
 1650 03464  0000  ROTATE, 0000                    /ROTATE DOWN
 1651 03465  7200          CLA
 1652 03466  1373          TAD     (REGC-1)
 1653 03467  3010          DCA     INDEX1
 1654 03470  1370          TAD     (TEMP-1)
 1655 03471  3011          DCA     INDEX2
 1656 03472  4775@         JMS     COPY            /COPY FROM C TO TEMP
 1657 03473  1374          TAD     (REGD-1)
 1658 03474  3010          DCA     INDEX1
 1659 03475  1373          TAD     (REGC-1)
 1660 03476  3011          DCA     INDEX2
 1661 03477  4775@         JMS     COPY            /COPY FROM D TO C
 1662 03500  1377          TAD     (REGE-1)
 1663 03501  3010          DCA     INDEX1
 1664 03502  1374          TAD     (REGD-1)
 1665 03503  3011          DCA     INDEX2
 1666 03504  4775@         JMS     COPY            /COPY FROM E TO D
 1667 03505  1376          TAD     (REGF-1)
 1668 03506  3010          DCA     INDEX1
 1669 03507  1377          TAD     (REGE-1)
 1670 03510  3011          DCA     INDEX2
 1671 03511  4775@         JMS     COPY            /COPY FROM F TO E
 1672 03512  1370          TAD     (TEMP-1)



      /HP-45 AND HP-35 EMULATOR                                          Page 37


 1673 03513  3010          DCA     INDEX1
 1674 03514  1376          TAD     (REGF-1)
 1675 03515  3011          DCA     INDEX2
 1676 03516  4775@         JMS     COPY            /COPY FROM TEMP TO F
 1677 03517  5664          JMP I   ROTATE
 1678                      
 1679 03520  0000  CLEARR, 0000
 1680 03521  7200          CLA
 1681 03522  1367          TAD     (-0070)
 1682 03523  3025          DCA     SIZE
 1683 03524  1372          TAD     (REGA-1)
 1684 03525  3010          DCA     INDEX1
 1685 03526  3410  CLR1,   DCA I   INDEX1
 1686 03527  2025          ISZ     SIZE
 1687 03530  5326          JMP     CLR1
 1688 03531  5720          JMP I   CLEARR
 1689                      
 1690              IFNZER DBGMOD <
 1691 03532  0000  PRINTR, 0000
 1692 03533  7200          CLA
 1693 03534  1366          TAD     (-0016)         /REGISTER SIZE
 1694 03535  3025          DCA     SIZE
 1695 03536  7201  PRNR1,  CLA IAC                 /REGIDX = -SIZE - 1
 1696 03537  1025          TAD     SIZE
 1697 03540  7041          CMA IAC                 /TWO'S COMPLEMENT
 1698 03541  3027          DCA     REGIDX
 1699 03542  4765@         JMS     GETAT
 1700 03543  1031          TAD     ATIO
 1701 03544  1364          TAD     (0060)
 1702 03545  4763@         JMS     PRINT
 1703 03546  2025          ISZ     SIZE
 1704 03547  5336          JMP     PRNR1
 1705 03550  1362          TAD     (0012)          /NL
 1706 03551  4763@         JMS     PRINT
 1707 03552  1361          TAD     (0015)          /CR
 1708 03553  4763@         JMS     PRINT
 1709 03554  5732          JMP I   PRINTR
 1710              >
 1711              
 1712              IFZERO STRT8 <
      03561  0015
      03562  0012
      03563  1200
      03564  0060
      03565  3236
      03566  7762
      03567  7710
      03570  0115
      03571  0106
      03572  0034



      /HP-45 AND HP-35 EMULATOR                                          Page 38


      03573  0052
      03574  0061
      03575  3360
      03576  0077
      03577  0070
 1713                      PAGE
 1714              
 1715 03600  0000  CTOADR, 0000
 1716 03601  7200          CLA
 1717 03602  1061          TAD REGC+6              /GET C[12,13]
 1718 03603  0377          AND (0077)              /GET RID OF TOP (C[13])
 1719 03604  3034          DCA RAMADR              /SAVE C[12]
 1720 03605  5600          JMP I   CTOADR
 1721              
 1722 03606  0000  CTODAT, 0000
 1723 03607  7200          CLA
 1724 03610  1034          TAD RAMADR
 1725 03611  7006          RTL                     /MULTIPLY BY 8 FOR OFFSET CALCULATION
 1726 03612  7004          RAL
 1727 03613  1376          TAD (RAM-1)             /ADD STARTING ADDRESS
 1728 03614  3011          DCA INDEX2              /COPY DESTINATION
 1729 03615  1375          TAD (REGC-1)
 1730 03616  3010          DCA INDEX1              /COPY FROM C TO RAM
 1731 03617  4774@         JMS COPY
 1732 03620  5606          JMP I   CTODAT
 1733              
 1734 03621  0000  DATTOC, 0000
 1735 03622  7200          CLA
 1736 03623  1034          TAD RAMADR
 1737 03624  7006          RTL                     /MULTIPLY BY 8 FOR OFFSET CALCULATION
 1738 03625  7004          RAL
 1739 03626  1376          TAD (RAM-1)             /ADD STARTING ADDRESS
 1740 03627  3010          DCA INDEX1              /COPY FROM RAM TO C
 1741 03630  1375          TAD (REGC-1)
 1742 03631  3011          DCA INDEX2              /COPY DESTINATION
 1743 03632  4774@         JMS COPY
 1744 03633  5621          JMP I   DATTOC
 1745              
 1746 03634  0000  RAM,    0000                    /RAM SIZE = 10 (80 PDP-8 WORDS) FOR HP-45
 1747 03635  0000          0000
 1748 03636  0000          0000
 1749 03637  0000          0000
 1750 03640  0000          0000
 1751 03641  0000          0000
 1752 03642  0000          0000
 1753 03643  0000          0000                    /UNUSED
 1754              
 1755 03644  0000          0000
 1756 03645  0000          0000
 1757 03646  0000          0000



      /HP-45 AND HP-35 EMULATOR                                          Page 39


 1758 03647  0000          0000
 1759 03650  0000          0000
 1760 03651  0000          0000
 1761 03652  0000          0000
 1762 03653  0000          0000                    /UNUSED
 1763              
 1764 03654  0000          0000
 1765 03655  0000          0000
 1766 03656  0000          0000
 1767 03657  0000          0000
 1768 03660  0000          0000
 1769 03661  0000          0000
 1770 03662  0000          0000
 1771 03663  0000          0000                    /UNUSED
 1772              
 1773 03664  0000          0000
 1774 03665  0000          0000
 1775 03666  0000          0000
 1776 03667  0000          0000
 1777 03670  0000          0000
 1778 03671  0000          0000
 1779 03672  0000          0000
 1780 03673  0000          0000                    /UNUSED
 1781              
 1782 03674  0000          0000
 1783 03675  0000          0000
 1784 03676  0000          0000
 1785 03677  0000          0000
 1786 03700  0000          0000
 1787 03701  0000          0000
 1788 03702  0000          0000
 1789 03703  0000          0000                    /UNUSED
 1790              
 1791 03704  0000          0000
 1792 03705  0000          0000
 1793 03706  0000          0000
 1794 03707  0000          0000
 1795 03710  0000          0000
 1796 03711  0000          0000
 1797 03712  0000          0000
 1798 03713  0000          0000                    /UNUSED
 1799              
 1800 03714  0000          0000
 1801 03715  0000          0000
 1802 03716  0000          0000
 1803 03717  0000          0000
 1804 03720  0000          0000
 1805 03721  0000          0000
 1806 03722  0000          0000
 1807 03723  0000          0000                    /UNUSED



      /HP-45 AND HP-35 EMULATOR                                          Page 40


 1808              
 1809 03724  0000          0000
 1810 03725  0000          0000
 1811 03726  0000          0000
 1812 03727  0000          0000
 1813 03730  0000          0000
 1814 03731  0000          0000
 1815 03732  0000          0000
 1816 03733  0000          0000                    /UNUSED
 1817              
 1818 03734  0000          0000
 1819 03735  0000          0000
 1820 03736  0000          0000
 1821 03737  0000          0000
 1822 03740  0000          0000
 1823 03741  0000          0000
 1824 03742  0000          0000
 1825 03743  0000          0000                    /UNUSED
 1826              
 1827 03744  0000          0000
 1828 03745  0000          0000
 1829 03746  0000          0000
 1830 03747  0000          0000
 1831 03750  0000          0000
 1832 03751  0000          0000
 1833 03752  0000          0000
 1834 03753  0000          0000                    /UNUSED
 1835              >
 1836              
      03774  3360
      03775  0052
      03776  3633
      03777  0077
 1837                      PAGE
 1838              
 1839 04000  0000  RESET,  0000
 1840              IFZERO STRT8 <
 1841 04001  7200          CLA
 1842 04002  7404          OSR                     /READ SR
 1843 04003  7006          RTL                     /MOVE TOP BIT TO BOTTOM
 1844 04004  0377          AND     (0001)          /KEEP BOTTOM BIT
 1845 04005  3130          DCA     MODE            /SAVE AS MODE (HP35=0, HP45=1)
 1846              >
 1847 04006  7200          CLA
 1848 04007  1376          TAD     (0002)          /START AT ADDRESS 2
 1849 04010  3116          DCA     TEMP
 1850 04011  7200  RESLP,  CLA
 1851 04012  3516          DCA I   TEMP            /CLEAR VALUE AT TEMP INDEX
 1852 04013  2116          ISZ     TEMP
 1853 04014  1116          TAD     TEMP            /CLEARING UP TO TEMP; THERE YET?



      /HP-45 AND HP-35 EMULATOR                                          Page 41


 1854 04015  7041          CMA IAC
 1855 04016  1375          TAD     (TEMP)
 1856 04017  7440          SZA
 1857 04020  5211          JMP     RESLP
 1858 04021  3116          DCA     TEMP
 1859              IFZERO STRT8 <
 1860 04022  1130          TAD     MODE            /WHICH CALCULATOR? HP35=0, HP45=1
 1861 04023  7440          SZA
 1862 04024  5230          JMP     MOD45           /LOOKS LIKE HP-45
 1863 04025  1374  MOD35,  TAD     (ROM35)         /LOOKS LIKE HP-35
 1864 04026  3127          DCA     HPROM
 1865 04027  5233          JMP     SETMSG          /INIT MESSAGE FOR 35
 1866 04030  7200  MOD45,  CLA
 1867 04031  1373          TAD     (ROM45)
 1868 04032  3127          DCA     HPROM
 1869 04033  1130  SETMSG, TAD     MODE            /0 FOR 35, 1 FOR 45
 1870 04034  1372          TAD     (0063)          /'3' FOR 35, '4' FOR 45
 1871 04035  3254          DCA     MODEL
 1872                      
 1873 04036  1371  PRTMSG, TAD     (-0011)         /PRINT HP-35 OR HP-45
 1874 04037  3025          DCA     SIZE
 1875 04040  1370          TAD     (HPMSG-1)
 1876 04041  3010          DCA     INDEX1
 1877 04042  1410  HPMSGL, TAD I   INDEX1
 1878 04043  4767@         JMS     PRINT
 1879 04044  2025          ISZ     SIZE
 1880 04045  5242          JMP     HPMSGL
 1881              >
 1882 04046  5600          JMP I   RESET           /DONE
 1883              
 1884              IFZERO STRT8 <
 1885 04047  0015  HPMSG,  0015                    /CR
 1886 04050  0012          0012                    /NL
 1887 04051  0110          0110                    /'H'
 1888 04052  0120          0120                    /'P'
 1889 04053  0055          0055                    /'-'
 1890 04054  0063  MODEL,  0063                    /'3'
 1891 04055  0065          0065                    /'5'
 1892 04056  0015          0015                    /CR
 1893 04057  0012          0012                    /NL
 1894              
 1895 04060  0000  EOLCNT, 0
 1896 04061  0000  TXTPRN, 0000
 1897 04062  7301          CLA CLL IAC
 1898 04063  7040          CMA                     /AC = -2
 1899 04064  3260          DCA     EOLCNT          /END OF LINE COUNTER INITIALIZED
 1900 04065  6211  PRNLP,  CDF 0010
 1901 04066  1410          TAD I   INDEX1          /GET FIRST TWO SIXBIT CHARS
 1902 04067  6201          CDF 0000
 1903 04070  7450          SNA



      /HP-45 AND HP-35 EMULATOR                                          Page 42


 1904 04071  5277          JMP     EOLJMP
 1905 04072  7002          BSW
 1906 04073  3116          DCA     TEMP
 1907 04074  4307          JMS     PRTSIX
 1908 04075  1116          TAD     TEMP
 1909 04076  7002          BSW
 1910 04077  3116  EOLJMP, DCA     TEMP
 1911 04100  4307          JMS     PRTSIX
 1912 04101  5265          JMP     PRNLP
 1913 04102  4334  NLCR,   JMS     SBNLCR
 1914 04103  2260          ISZ     EOLCNT
 1915 04104  7410          SKP
 1916 04105  5661          JMP I   TXTPRN
 1917 04106  5707          JMP I   PRTSIX
 1918              
 1919 04107  0000  PRTSIX, 0000
 1920 04110  1116          TAD     TEMP
 1921 04111  7450          SNA
 1922 04112  5302          JMP     NLCR
 1923 04113  0366          AND     (0077)
 1924 04114  7450          SNA
 1925 04115  5302          JMP     NLCR
 1926 04116  0365          AND     (0040)
 1927 04117  7040          CMA
 1928 04120  0365          AND     (0040)
 1929 04121  7004          RAL
 1930 04122  3333          DCA     SHIFT
 1931 04123  1116          TAD     TEMP
 1932 04124  0366          AND     (0077)
 1933 04125  1333          TAD     SHIFT
 1934 04126  4767@         JMS     PRINT
 1935 04127  7001          IAC
 1936 04130  7040          CMA
 1937 04131  3260          DCA     EOLCNT
 1938 04132  5707          JMP I   PRTSIX
 1939 04133  0000  SHIFT,  0
 1940              
 1941 04134  0000  SBNLCR, 0000
 1942 04135  1364          TAD     (0015)
 1943 04136  4767@         JMS     PRINT
 1944 04137  1363          TAD     (0012)
 1945 04140  4767@         JMS     PRINT
 1946 04141  5734          JMP I   SBNLCR
 1947              >
 1948              
 1949              /HP-35 AND HP-45 KEY MAP
 1950              /
 1951              /               06      04      03      02      00
 1952              /HP45 2ND       Y^X     LOG     10^X    SCI     2ND
 1953              /HP45           1/X     LN      E^X     FIX     2ND



      /HP-45 AND HP-35 EMULATOR                                          Page 43


 1954              /HP35           X^Y     LOG     LN      E^X     CLR
 1955              /               56      54      53      52      50
 1956              /HP45 2ND       SQRT    >R      ASIN    ACOS    ATAN
 1957              /HP45           SQR     >P      SIN     COS     TAN
 1958              /HP35           SQRT    ARC     SIN     COS     TAN
 1959              /               16      14      13      12      10
 1960              /HP45 2ND       N!      STDDEV  >D.MS   D.MS>   DEL%
 1961              /HP45           X<>Y    ROLL    STO     RCL     %
 1962              /HP35           1/X     X<>Y    ROLL    STO     RCL
 1963              /               76              73      72      70
 1964              /HP45 2ND       DEG             RAD     GRD     CLEAR
 1965              /HP45           ENTER           CHS     EEX     CLX
 1966              /HP35           ENTER           CHS     EEX     CLX
 1967              /               66      64      63      62
 1968              /HP45 2ND       -       CM/IN   KG/LB   LTR/GAL
 1969              /HP45           -       7       8       9
 1970              /HP35           -       7       8       9
 1971              /               26      24      23      22
 1972              /HP45 2ND       +       4       5       6
 1973              /HP45           +       4       5       6
 1974              /HP35           +       4       5       6
 1975              /               36      34      33      32
 1976              /HP45 2ND       *       1       2       3
 1977              /HP45           *       1       2       3
 1978              /HP35           *       1       2       3
 1979              /               46      44      43      42
 1980              /HP45 2ND       /       LASTX   PI      SUM-
 1981              /HP45           /       0       .       SUM+
 1982              /HP35           /       0       .       PI
 1983              
 1984                                              /KEY    HP35    HP45    HP45 2ND
 1985              /       (45)(35)                77 FOR INVALID
 1986              
 1987              IFNZER STRT8 <
 1988                      *3400
 1989              >
 1990              IFZERO STRT8 <
      04163  0012
      04164  0015
      04165  0040
      04166  0077
      04167  1200
      04170  4046
      04171  7767
      04172  0063
      04173  3400
      04174  2000
      04175  0116
      04176  0002
      04177  0001



      /HP-45 AND HP-35 EMULATOR                                          Page 44


 1991        4200          *4200
 1992              >
 1993 04200  7763  KEYLU,  -0015                   /ENTER  ENTER   ENTER   DEG
 1994 04201  7676          7676
 1995              /IFNZER TTY <7777>      /UPDATE DISP
 1996 04202  7726          -0052                   /*      *       *       *
 1997 04203  3636          3636
 1998              /IFNZER TTY <7777>      /UPDATE DISP
 1999 04204  7725          -0053                   /+      +       +       +
 2000 04205  2626          2626
 2001              /IFNZER TTY <7777>      /UPDATE DISP
 2002 04206  7723          -0055                   /-      -       -       -
 2003 04207  6666          6666
 2004              /IFNZER TTY <7777>      /UPDATE DISP
 2005 04210  7722          -0056                   /.      .       .       PI
 2006 04211  4343          4343
 2007              /IFNZER TTY <0100>      /DON'T UPDATE DISP FOR HP-35
 2008 04212  7721          -0057                   //      /       /       /
 2009 04213  4646          4646
 2010              /IFNZER TTY <7777>      /UPDATE DISP
 2011 04214  7720          -0060                   /0      0       0       LASTX
 2012 04215  4444          4444
 2013              /IFNZER TTY <0100>      /DON'T UPDATE DISP FOR HP-35
 2014 04216  7717          -0061                   /1      1       1       1
 2015 04217  3434          3434
 2016              /IFNZER TTY <0000>      /DON'T UPDATE DISP
 2017 04220  7716          -0062                   /2      2       2       2
 2018 04221  3333          3333
 2019              /IFNZER TTY <0000>      /DON'T UPDATE DISP
 2020 04222  7715          -0063                   /3      3       3       3
 2021 04223  3232          3232
 2022              /IFNZER TTY <0000>      /DON'T UPDATE DISP
 2023 04224  7714          -0064                   /4      4       4       4
 2024 04225  2424          2424
 2025              /IFNZER TTY <0000>      /DON'T UPDATE DISP
 2026 04226  7713          -0065                   /5      5       5       5
 2027 04227  2323          2323
 2028              /IFNZER TTY <0000>      /DON'T UPDATE DISP
 2029 04230  7712          -0066                   /6      6       6       6
 2030 04231  2222          2222
 2031              /IFNZER TTY <0000>      /DON'T UPDATE DISP
 2032 04232  7711          -0067                   /7      7       7       CM/IN
 2033 04233  6464          6464                                                    
 2034              /IFNZER TTY <0100>      /DON'T UPDATE DISP FOR HP-35
 2035 04234  7710          -0070                   /8      8       8       KG/LB
 2036 04235  6363          6363                                                    
 2037              /IFNZER TTY <0100>      /DON'T UPDATE DISP FOR HP-35
 2038 04236  7707          -0071                   /9      9       9       LTR/GAL
 2039 04237  6262          6262
 2040              /IFNZER TTY <0100>      /DON'T UPDATE DISP FOR HP-35



      /HP-45 AND HP-35 EMULATOR                                          Page 45


 2041 04240  7745          -0033                   /ESC    CLR             
 2042 04241  7700          7700
 2043              /IFNZER TTY <0077>      /UPDATE DISP
 2044 04242  7642          -0136                   /^      X^Y
 2045 04243  7706          7706
 2046              /IFNZER TTY <0077>      /UPDATE DISP
 2047 04244  7671          -0107                   /G      LOG
 2048 04245  7704          7704
 2049              /IFNZER TTY <0077>      /UPDATE DISP
 2050 04246  7677          -0101                   /A      ARC     2ND
 2051 04247  0054          0054
 2052              /IFNZER TTY <7676>      /DON'T UPDATE DISP YET
 2053 04250  7652          -0126                   /V      1/X     1/X     Y^X
 2054 04251  0616          0616
 2055              /IFNZER TTY <7777>      /UPDATE DISP
 2056 04252  7662          -0116                   /N      LN      LN      LOG
 2057 04253  0406          0406
 2058              /IFNZER TTY <7777>      /UPDATE DISP
 2059 04254  7650          -0130                   /X      E^X     E^X     10^X
 2060 04255  0302          0302
 2061              /IFNZER TTY <7777>      /UPDATE DISP
 2062 04256  7672          -0106                   /F              FIX     SCI
 2063 04257  0277          0277
 2064              /IFNZER TTY <7600>      /DON'T UPDATE DISP YET
 2065 04260  7657          -0121                   /Q      SQRT(X) SQR(X)  SQRT(X)
 2066 04261  5656          5656
 2067              /IFNZER TTY <7777>      /UPDATE DISP
 2068 04262  7660          -0120                   /P      PI      >POL    >RECT
 2069 04263  5442          5442
 2070              /IFNZER TTY <7777>      /UPDATE DISP
 2071 04264  7655          -0123                   /S      SIN     SIN     ASIN
 2072 04265  5353          5353                                       
 2073              /IFNZER TTY <7777>      /UPDATE DISP
 2074 04266  7675          -0103                   /C      COS     COS     ACOS
 2075 04267  5252          5252                                       
 2076              /IFNZER TTY <7777>      /UPDATE DISP
 2077 04270  7654          -0124                   /T      TAN     TAN     ATAN
 2078 04271  5050          5050
 2079              /IFNZER TTY <7777>      /UPDATE DISP
 2080 04272  7653          -0125                   /U              SUM+    SUM-
 2081 04273  4277          4277
 2082              /IFNZER TTY <7700>      /UPDATE DISP
 2083 04274  7651          -0127                   /W      X<>Y    X<>Y    N!
 2084 04275  1614          1614
 2085              /IFNZER TTY <7777>      /UPDATE DISP
 2086 04276  7656          -0122                   /R      ROLL    ROLL    STD DEV
 2087 04277  1413          1413
 2088              /IFNZER TTY <7777>      /UPDATE DISP
 2089 04300  7704          -0074                   /<      STO     STO     >D.MS
 2090 04301  1312          1312



      /HP-45 AND HP-35 EMULATOR                                          Page 46


 2091              /IFNZER TTY <7777>      /UPDATE DISP
 2092 04302  7702          -0076                   />      RCL     RCL     D.MS>
 2093 04303  1210          1210
 2094              /IFNZER TTY <7777>      /UPDATE DISP
 2095 04304  7733          -0045                   /%              %       DEL%
 2096 04305  1077          1077
 2097              /IFNZER TTY <7700>      /UPDATE DISP
 2098 04306  7670          -0110                   /H      CHS     CHS     RAD
 2099 04307  7373          7373
 2100              /IFNZER TTY <7777>      /UPDATE DISP
 2101 04310  7673          -0105                   /E      EEX     EEX     GRD
 2102 04311  7272          7272
 2103              /IFNZER TTY <7777>      /UPDATE DISP
 2104 04312  7601          -0177                   /BKSPC  CLX     CLX     CLEAR
 2105 04313  7070          7070
 2106              /IFNZER TTY <7777>      /UPDATE DISP
 2107 04314  0000  ENDKEY, 0
 2108                      
 2109              IFNZER STRT8 <
 2110                      *4000
 2111              >
 2112              IFZERO STRT8 <
 2113        5000          *5000
 2114              >
 2115 05000  0000  INSTLU, 0000                    /START OF INSTRUCTION LOOKUP (2000 OCTAL WORDS LONG)
 2116              
 2117              IFZERO STRT8 <
      00170  0007
      00171  0017
      00172  0034
      00173  0062
      00174  0053
      00175  0044
      00176  0035
      00177  0377
 2118                      FIELD 1
 2119        0200          *0200
 2120              
 2121 10200  1020  GRTMSG, TEXT/HP-35 AND HP-45 SIMULATOR FOR PDP-8/
      10201  5563
      10202  6540
      10203  0116
      10204  0440
      10205  1020
      10206  5564
      10207  6540
      10210  2311
      10211  1525
      10212  1401
      10213  2417



      /HP-45 AND HP-35 EMULATOR                                          Page 47


      10214  2240
      10215  0617
      10216  2240
      10217  2004
      10220  2055
      10221  7000
 2122 10222  1331          TEXT"KYLE OWEN - 9/1/2016"
      10223  1405
      10224  4017
      10225  2705
      10226  1640
      10227  5540
      10230  7157
      10231  6157
      10232  6260
      10233  6166
      10234  0000
 2123 10235  1116          TEXT"INSPIRED BY ERIC SMITH'S CASMSIM/NONPAREIL PROJECT"
      10236  2320
      10237  1122
      10240  0504
      10241  4002
      10242  3140
      10243  0522
      10244  1103
      10245  4023
      10246  1511
      10247  2410
      10250  4723
      10251  4003
      10252  0123
      10253  1523
      10254  1115
      10255  5716
      10256  1716
      10257  2001
      10260  2205
      10261  1114
      10262  4020
      10263  2217
      10264  1205
      10265  0324
      10266  0000
 2124 10267  2431          TEXT/TYPE '?' FOR HELP/
      10270  2005
      10271  4047
      10272  7747
      10273  4006
      10274  1722
      10275  4010



      /HP-45 AND HP-35 EMULATOR                                          Page 48


      10276  0514
      10277  2000
 2125 10300  0000          TEXT//
 2126              
 2127                      PAGE
 2128              
 2129 10400  2322  KEYMSG, TEXT"SR0 = 0 FOR HP-35, SR0 = 1 FOR HP-45"
      10401  6040
      10402  7540
      10403  6040
      10404  0617
      10405  2240
      10406  1020
      10407  5563
      10410  6554
      10411  4023
      10412  2260
      10413  4075
      10414  4061
      10415  4006
      10416  1722
      10417  4010
      10420  2055
      10421  6465
      10422  0000
 2130 10423  1305          TEXT"KEY:   HP-35  HP-45  HP-45 (2ND)      KEY:   HP-35  HP-45  HP-45 (2ND)"
      10424  3172
      10425  4040
      10426  4010
      10427  2055
      10430  6365
      10431  4040
      10432  1020
      10433  5564
      10434  6540
      10435  4010
      10436  2055
      10437  6465
      10440  4050
      10441  6216
      10442  0451
      10443  4040
      10444  4040
      10445  4040
      10446  1305
      10447  3172
      10450  4040
      10451  4010
      10452  2055
      10453  6365



      /HP-45 AND HP-35 EMULATOR                                          Page 49


      10454  4040
      10455  1020
      10456  5564
      10457  6540
      10460  4010
      10461  2055
      10462  6465
      10463  4050
      10464  6216
      10465  0451
      10466  0000
 2131 10467  6040          TEXT"0      0      0      LASTX            5      5      5      5"
      10470  4040
      10471  4040
      10472  4060
      10473  4040
      10474  4040
      10475  4040
      10476  6040
      10477  4040
      10500  4040
      10501  4014
      10502  0123
      10503  2430
      10504  4040
      10505  4040
      10506  4040
      10507  4040
      10510  4040
      10511  4040
      10512  6540
      10513  4040
      10514  4040
      10515  4065
      10516  4040
      10517  4040
      10520  4040
      10521  6540
      10522  4040
      10523  4040
      10524  4065
      10525  0000
 2132 10526  6140          TEXT"1      1      1      1                6      6      6      6"
      10527  4040
      10530  4040
      10531  4061
      10532  4040
      10533  4040
      10534  4040
      10535  6140



      /HP-45 AND HP-35 EMULATOR                                          Page 50


      10536  4040
      10537  4040
      10540  4061
      10541  4040
      10542  4040
      10543  4040
      10544  4040
      10545  4040
      10546  4040
      10547  4040
      10550  4040
      10551  6640
      10552  4040
      10553  4040
      10554  4066
      10555  4040
      10556  4040
      10557  4040
      10560  6640
      10561  4040
      10562  4040
      10563  4066
      10564  0000
 2133 10565  6240          TEXT"2      2      2      2                7      7      7      CM/IN"
      10566  4040
      10567  4040
      10570  4062
      10571  4040
      10572  4040
      10573  4040
      10574  6240
      10575  4040
      10576  4040
      10577  4062
      10600  4040
      10601  4040
      10602  4040
      10603  4040
      10604  4040
      10605  4040
      10606  4040
      10607  4040
      10610  6740
      10611  4040
      10612  4040
      10613  4067
      10614  4040
      10615  4040
      10616  4040
      10617  6740



      /HP-45 AND HP-35 EMULATOR                                          Page 51


      10620  4040
      10621  4040
      10622  4003
      10623  1557
      10624  1116
      10625  0000
 2134 10626  6340          TEXT"3      3      3      3                8      8      8      KG/LB"
      10627  4040
      10630  4040
      10631  4063
      10632  4040
      10633  4040
      10634  4040
      10635  6340
      10636  4040
      10637  4040
      10640  4063
      10641  4040
      10642  4040
      10643  4040
      10644  4040
      10645  4040
      10646  4040
      10647  4040
      10650  4040
      10651  7040
      10652  4040
      10653  4040
      10654  4070
      10655  4040
      10656  4040
      10657  4040
      10660  7040
      10661  4040
      10662  4040
      10663  4013
      10664  0757
      10665  1402
      10666  0000
 2135 10667  6440          TEXT"4      4      4      4                9      9      9      LTR/GAL"
      10670  4040
      10671  4040
      10672  4064
      10673  4040
      10674  4040
      10675  4040
      10676  6440
      10677  4040
      10700  4040
      10701  4064



      /HP-45 AND HP-35 EMULATOR                                          Page 52


      10702  4040
      10703  4040
      10704  4040
      10705  4040
      10706  4040
      10707  4040
      10710  4040
      10711  4040
      10712  7140
      10713  4040
      10714  4040
      10715  4071
      10716  4040
      10717  4040
      10720  4040
      10721  7140
      10722  4040
      10723  4040
      10724  4014
      10725  2422
      10726  5707
      10727  0114
      10730  0000
 2136 10731  5640          TEXT".      .      .      PI               CR     ENTER  ENTER  DEG"
      10732  4040
      10733  4040
      10734  4056
      10735  4040
      10736  4040
      10737  4040
      10740  5640
      10741  4040
      10742  4040
      10743  4020
      10744  1140
      10745  4040
      10746  4040
      10747  4040
      10750  4040
      10751  4040
      10752  4040
      10753  4040
      10754  0322
      10755  4040
      10756  4040
      10757  4005
      10760  1624
      10761  0522
      10762  4040
      10763  0516



      /HP-45 AND HP-35 EMULATOR                                          Page 53


      10764  2405
      10765  2240
      10766  4004
      10767  0507
      10770  0000
 2137 10771  5340          TEXT"+      +      +      +                *      *      *      *"
      10772  4040
      10773  4040
      10774  4053
      10775  4040
      10776  4040
      10777  4040
      11000  5340
      11001  4040
      11002  4040
      11003  4053
      11004  4040
      11005  4040
      11006  4040
      11007  4040
      11010  4040
      11011  4040
      11012  4040
      11013  4040
      11014  5240
      11015  4040
      11016  4040
      11017  4052
      11020  4040
      11021  4040
      11022  4040
      11023  5240
      11024  4040
      11025  4040
      11026  4052
      11027  0000
 2138 11030  5540          TEXT"-      -      -      -                /      /      /      /"
      11031  4040
      11032  4040
      11033  4055
      11034  4040
      11035  4040
      11036  4040
      11037  5540
      11040  4040
      11041  4040
      11042  4055
      11043  4040
      11044  4040
      11045  4040



      /HP-45 AND HP-35 EMULATOR                                          Page 54


      11046  4040
      11047  4040
      11050  4040
      11051  4040
      11052  4040
      11053  5740
      11054  4040
      11055  4040
      11056  4057
      11057  4040
      11060  4040
      11061  4040
      11062  5740
      11063  4040
      11064  4040
      11065  4057
      11066  0000
 2139 11067  1040          TEXT"H      CHS    CHS    RAD              E      EEX    EEX    GRD"
      11070  4040
      11071  4040
      11072  4003
      11073  1023
      11074  4040
      11075  4040
      11076  0310
      11077  2340
      11100  4040
      11101  4022
      11102  0104
      11103  4040
      11104  4040
      11105  4040
      11106  4040
      11107  4040
      11110  4040
      11111  4040
      11112  0540
      11113  4040
      11114  4040
      11115  4005
      11116  0530
      11117  4040
      11120  4040
      11121  0505
      11122  3040
      11123  4040
      11124  4007
      11125  2204
      11126  0000
 2140 11127  0523          TEXT"ESC    CLR                            DEL    CLX    CLX    CLEAR"



      /HP-45 AND HP-35 EMULATOR                                          Page 55


      11130  0340
      11131  4040
      11132  4003
      11133  1422
      11134  4040
      11135  4040
      11136  4040
      11137  4040
      11140  4040
      11141  4040
      11142  4040
      11143  4040
      11144  4040
      11145  4040
      11146  4040
      11147  4040
      11150  4040
      11151  4040
      11152  0405
      11153  1440
      11154  4040
      11155  4003
      11156  1430
      11157  4040
      11160  4040
      11161  0314
      11162  3040
      11163  4040
      11164  4003
      11165  1405
      11166  0122
      11167  0000
 2141 11170  2740          TEXT"W      X<>Y   X<>Y   N!               R      ROLL   ROLL   STDDEV"
      11171  4040
      11172  4040
      11173  4030
      11174  7476
      11175  3140
      11176  4040
      11177  3074
      11200  7631
      11201  4040
      11202  4016
      11203  4140
      11204  4040
      11205  4040
      11206  4040
      11207  4040
      11210  4040
      11211  4040



      /HP-45 AND HP-35 EMULATOR                                          Page 56


      11212  4040
      11213  2240
      11214  4040
      11215  4040
      11216  4022
      11217  1714
      11220  1440
      11221  4040
      11222  2217
      11223  1414
      11224  4040
      11225  4023
      11226  2404
      11227  0405
      11230  2600
 2142              IFDEF TEMP < IFDEF TEMP <       /KLUGE TO ALLOW ANGLE BRACES IN TEXT STRINGS
 2143 11231  7440          TEXT"<      STO    STO    >D.MS            >      RCL    RCL    D.MS>"
      11232  4040
      11233  4040
      11234  4023
      11235  2417
      11236  4040
      11237  4040
      11240  2324
      11241  1740
      11242  4040
      11243  4076
      11244  0456
      11245  1523
      11246  4040
      11247  4040
      11250  4040
      11251  4040
      11252  4040
      11253  4040
      11254  7640
      11255  4040
      11256  4040
      11257  4022
      11260  0314
      11261  4040
      11262  4040
      11263  2203
      11264  1440
      11265  4040
      11266  4004
      11267  5615
      11270  2376
      11271  0000
 2144 11272  3640          TEXT"^      X^Y                            V      1/X    1/X    Y^X"



      /HP-45 AND HP-35 EMULATOR                                          Page 57


      11273  4040
      11274  4040
      11275  4030
      11276  3631
      11277  4040
      11300  4040
      11301  4040
      11302  4040
      11303  4040
      11304  4040
      11305  4040
      11306  4040
      11307  4040
      11310  4040
      11311  4040
      11312  4040
      11313  4040
      11314  4040
      11315  2640
      11316  4040
      11317  4040
      11320  4061
      11321  5730
      11322  4040
      11323  4040
      11324  6157
      11325  3040
      11326  4040
      11327  4031
      11330  3630
      11331  0000
 2145 11332  0740          TEXT"G      LOG                            N      LN     LN     LOG"
      11333  4040
      11334  4040
      11335  4014
      11336  1707
      11337  4040
      11340  4040
      11341  4040
      11342  4040
      11343  4040
      11344  4040
      11345  4040
      11346  4040
      11347  4040
      11350  4040
      11351  4040
      11352  4040
      11353  4040
      11354  4040



      /HP-45 AND HP-35 EMULATOR                                          Page 58


      11355  1640
      11356  4040
      11357  4040
      11360  4014
      11361  1640
      11362  4040
      11363  4040
      11364  1416
      11365  4040
      11366  4040
      11367  4014
      11370  1707
      11371  0000
 2146 11372  3040          TEXT"X      E^X    E^X    10^X             Q      SQRT   SQR    SQRT"
      11373  4040
      11374  4040
      11375  4005
      11376  3630
      11377  4040
      11400  4040
      11401  0536
      11402  3040
      11403  4040
      11404  4061
      11405  6036
      11406  3040
      11407  4040
      11410  4040
      11411  4040
      11412  4040
      11413  4040
      11414  4040
      11415  2140
      11416  4040
      11417  4040
      11420  4023
      11421  2122
      11422  2440
      11423  4040
      11424  2321
      11425  2240
      11426  4040
      11427  4023
      11430  2122
      11431  2400
 2147 11432  0140          TEXT"A      ARC    2ND    2ND              S      SIN    SIN    ASIN"
      11433  4040
      11434  4040
      11435  4001
      11436  2203



      /HP-45 AND HP-35 EMULATOR                                          Page 59


      11437  4040
      11440  4040
      11441  6216
      11442  0440
      11443  4040
      11444  4062
      11445  1604
      11446  4040
      11447  4040
      11450  4040
      11451  4040
      11452  4040
      11453  4040
      11454  4040
      11455  2340
      11456  4040
      11457  4040
      11460  4023
      11461  1116
      11462  4040
      11463  4040
      11464  2311
      11465  1640
      11466  4040
      11467  4001
      11470  2311
      11471  1600
 2148 11472  0340          TEXT"C      COS    COS    ACOS             T      TAN    TAN    ATAN"
      11473  4040
      11474  4040
      11475  4003
      11476  1723
      11477  4040
      11500  4040
      11501  0317
      11502  2340
      11503  4040
      11504  4001
      11505  0317
      11506  2340
      11507  4040
      11510  4040
      11511  4040
      11512  4040
      11513  4040
      11514  4040
      11515  2440
      11516  4040
      11517  4040
      11520  4024



      /HP-45 AND HP-35 EMULATOR                                          Page 60


      11521  0116
      11522  4040
      11523  4040
      11524  2401
      11525  1640
      11526  4040
      11527  4001
      11530  2401
      11531  1600
 2149              IFDEF TEMP < IFDEF TEMP <       /KLUGE TO ALLOW ANGLE BRACES IN TEXT STRINGS
 2150 11532  2040          TEXT"P      PI     >POL   >RECT            F             FIX    SCI"
      11533  4040
      11534  4040
      11535  4020
      11536  1140
      11537  4040
      11540  4040
      11541  7620
      11542  1714
      11543  4040
      11544  4076
      11545  2205
      11546  0324
      11547  4040
      11550  4040
      11551  4040
      11552  4040
      11553  4040
      11554  4040
      11555  0640
      11556  4040
      11557  4040
      11560  4040
      11561  4040
      11562  4040
      11563  4040
      11564  0611
      11565  3040
      11566  4040
      11567  4023
      11570  0311
      11571  0000
 2151 11572  2540          TEXT"U             SUM+   SUM-             %             %      DEL%"
      11573  4040
      11574  4040
      11575  4040
      11576  4040
      11577  4040
      11600  4040
      11601  2325



      /HP-45 AND HP-35 EMULATOR                                          Page 61


      11602  1553
      11603  4040
      11604  4023
      11605  2515
      11606  5540
      11607  4040
      11610  4040
      11611  4040
      11612  4040
      11613  4040
      11614  4040
      11615  4540
      11616  4040
      11617  4040
      11620  4040
      11621  4040
      11622  4040
      11623  4040
      11624  4540
      11625  4040
      11626  4040
      11627  4004
      11630  0514
      11631  4500
 2152 11632  0000          TEXT""
 2153              
 2154        2000          *2000
 2155              >
 2156              IFNZER STRT8 <
 2157                      *6000
 2158              >
 2159 12000  0335  ROM35,  0335; 1377; 1044; 0027; 0504; 1104; 0204; 0420; 1321; 
      12001  1377
      12002  1044
      12003  0027
      12004  0504
      12005  1104
      12006  0204
      12007  0420
      12010  1321
 2160 12011  1773          1773; 0137; 0303; 0650; 1547; 1356; 1742; 0056; 0220; 
      12012  0137
      12013  0303
      12014  0650
      12015  1547
      12016  1356
      12017  1742
      12020  0056
      12021  0220
 2161 12022  1752          1752; 1752; 1752; 0153; 1151; 0250; 1250; 0377; 1752; 



      /HP-45 AND HP-35 EMULATOR                                          Page 62


      12023  1752
      12024  1752
      12025  0153
      12026  1151
      12027  0250
      12030  1250
      12031  0377
      12032  1752
 2162 12033  1752          1752; 1752; 0060; 0314; 0252; 0650; 0103; 0723; 0314; 
      12034  1752
      12035  0060
      12036  0314
      12037  0252
      12040  0650
      12041  0103
      12042  0723
      12043  0314
 2163 12044  0060          0060; 0000; 0203; 0504; 0104; 0273; 1104; 0237; 1204; 
      12045  0000
      12046  0203
      12047  0504
      12050  0104
      12051  0273
      12052  1104
      12053  0237
      12054  1204
 2164 12055  1413          1413; 0056; 0220; 1450; 1557; 1752; 1752; 1752; 0113; 
      12056  0056
      12057  0220
      12060  1450
      12061  1557
      12062  1752
      12063  1752
      12064  1752
      12065  0113
 2165 12066  1147          1147; 1650; 0561; 1567; 1713; 1316; 0304; 0733; 0450; 
      12067  1650
      12070  0561
      12071  1567
      12072  1713
      12073  1316
      12074  0304
      12075  0733
      12076  0450
 2166 12077  0064          0064; 1316; 1565; 0456; 1372; 0426; 1552; 1603; 0672; 
      12100  1316
      12101  1565
      12102  0456
      12103  1372
      12104  0426



      /HP-45 AND HP-35 EMULATOR                                          Page 63


      12105  1552
      12106  1603
      12107  0672
 2167 12110  1633          1633; 1466; 1514; 1633; 0034; 0752; 0002; 0463; 1304; 
      12111  1466
      12112  1514
      12113  1633
      12114  0034
      12115  0752
      12116  0002
      12117  0463
      12120  1304
 2168 12121  1326          1326; 1646; 0424; 1037; 0575; 1567; 0322; 0562; 0332; 
      12122  1646
      12123  0424
      12124  1037
      12125  0575
      12126  1567
      12127  0322
      12130  0562
      12131  0332
 2169 12132  1612          1612; 0567; 0316; 0064; 0616; 1414; 0452; 0612; 0672; 
      12133  0567
      12134  0316
      12135  0064
      12136  0616
      12137  1414
      12140  0452
      12141  0612
      12142  0672
 2170 12143  0643          0643; 0252; 0572; 0537; 0514; 1652; 0424; 0413; 1452; 
      12144  0252
      12145  0572
      12146  0537
      12147  0514
      12150  1652
      12151  0424
      12152  0413
      12153  1452
 2171 12154  0052          0052; 1735; 0412; 1316; 1454; 1047; 1662; 0753; 1321; 
      12155  1735
      12156  0412
      12157  1316
      12160  1454
      12161  1047
      12162  1662
      12163  0753
      12164  1321
 2172 12165  0220          0220; 0424; 1733; 1662; 0372; 0616; 0672; 0777; 0332; 
      12166  0424



      /HP-45 AND HP-35 EMULATOR                                          Page 64


      12167  1733
      12170  1662
      12171  0372
      12172  0616
      12173  0672
      12174  0777
      12175  0332
 2173 12176  0252          0252; 1514; 0426; 0552; 1176; 0473; 1166; 1003; 0312; 
      12177  1514
      12200  0426
      12201  0552
      12202  1176
      12203  0473
      12204  1166
      12205  1003
      12206  0312
 2174 12207  1735          1735; 1326; 0636; 1454; 1117; 0216; 0756; 0114; 0422; 
      12210  1326
      12211  0636
      12212  1454
      12213  1117
      12214  0216
      12215  0756
      12216  0114
      12217  0422
 2175 12220  0074          0074; 0642; 1077; 1656; 0354; 1747; 0312; 0604; 0753; 
      12221  0642
      12222  1077
      12223  1656
      12224  0354
      12225  1747
      12226  0312
      12227  0604
      12230  0753
 2176 12231  0376          0376; 0650; 0056; 1772; 1772; 0772; 0772; 0112; 1217; 
      12232  0650
      12233  0056
      12234  1772
      12235  1772
      12236  0772
      12237  0772
      12240  0112
      12241  1217
 2177 12242  1656          1656; 1646; 0646; 1237; 1656; 1046; 0112; 1373; 1216; 
      12243  1646
      12244  0646
      12245  1237
      12246  1656
      12247  1046
      12250  0112



      /HP-45 AND HP-35 EMULATOR                                          Page 65


      12251  1373
      12252  1216
 2178 12253  1752          1752; 0016; 1373; 1243; 1366; 0324; 1323; 1576; 0376; 
      12254  0016
      12255  1373
      12256  1243
      12257  1366
      12260  0324
      12261  1323
      12262  1576
      12263  0376
 2179 12264  0724          0724; 1337; 0450; 0704; 0316; 0556; 0276; 0776; 1056; 
      12265  1337
      12266  0450
      12267  0704
      12270  0316
      12271  0556
      12272  0276
      12273  0776
      12274  1056
 2180 12275  0060          0060; 0220; 0561; 0504; 1567; 1316; 0636; 1044; 1477; 
      12276  0220
      12277  0561
      12300  0504
      12301  1567
      12302  1316
      12303  0636
      12304  1044
      12305  1477
 2181 12306  0772          0772; 1004; 0524; 1467; 0752; 1433; 0050; 0024; 1437; 
      12307  1004
      12310  0524
      12311  1467
      12312  0752
      12313  1433
      12314  0050
      12315  0024
      12316  1437
 2182 12317  0044          0044; 0034; 1454; 1503; 1050; 1024; 1463; 0416; 0544; 
      12320  0034
      12321  1454
      12322  1503
      12323  1050
      12324  1024
      12325  1463
      12326  0416
      12327  0544
 2183 12330  0320          0320; 0450; 1656; 0565; 0704; 1735; 1275; 1053; 1326; 
      12331  0450
      12332  1656



      /HP-45 AND HP-35 EMULATOR                                          Page 66


      12333  0565
      12334  0704
      12335  1735
      12336  1275
      12337  1053
      12340  1326
 2184 12341  0034          0034; 0254; 0427; 1414; 1356; 1366; 1742; 1742; 0214; 
      12342  0254
      12343  0427
      12344  1414
      12345  1356
      12346  1366
      12347  1742
      12350  1742
      12351  0214
 2185 12352  0074          0074; 1542; 1677; 0002; 1653; 1742; 1456; 0060; 0404; 
      12353  1542
      12354  1677
      12355  0002
      12356  1653
      12357  1742
      12360  1456
      12361  0060
      12362  0404
 2186 12363  1324          1324; 0163; 0677; 0376; 1244; 1417; 0624; 1763; 0034; 
      12364  0163
      12365  0677
      12366  0376
      12367  1244
      12370  1417
      12371  0624
      12372  1763
      12373  0034
 2187 12374  1222          1222; 0751; 1250; 1557; 1717; 1456; 0241; 0650; 0241; 
      12375  0751
      12376  1250
      12377  1557
      12400  1717
      12401  1456
      12402  0241
      12403  0650
      12404  0241
 2188 12405  0650          0650; 1124; 0047; 1656; 0524; 0113; 0336; 1231; 0450; 
      12406  1124
      12407  0047
      12410  1656
      12411  0524
      12412  0113
      12413  0336
      12414  1231



      /HP-45 AND HP-35 EMULATOR                                          Page 67


      12415  0450
 2189 12416  1225          1225; 1141; 0225; 0650; 1231; 1224; 1553; 1356; 1742; 
      12417  1141
      12420  0225
      12421  0650
      12422  1231
      12423  1224
      12424  1553
      12425  1356
      12426  1742
 2190 12427  0446          0446; 1646; 0552; 1222; 0672; 0147; 1322; 0752; 0167; 
      12430  1646
      12431  0552
      12432  1222
      12433  0672
      12434  0147
      12435  1322
      12436  0752
      12437  0167
 2191 12440  1316          1316; 1216; 0450; 1056; 0407; 1056; 0414; 1573; 0450; 
      12441  1216
      12442  0450
      12443  1056
      12444  0407
      12445  1056
      12446  0414
      12447  1573
      12450  0450
 2192 12451  1656          1656; 0642; 0267; 0256; 0616; 0212; 1457; 0616; 0124; 
      12452  0642
      12453  0267
      12454  0256
      12455  0616
      12456  0212
      12457  1457
      12460  0616
      12461  0124
 2193 12462  0227          0227; 1224; 0667; 0524; 0127; 0376; 1676; 0067; 1222; 
      12463  1224
      12464  0667
      12465  0524
      12466  0127
      12467  0376
      12470  1676
      12471  0067
      12472  1222
 2194 12473  1576          1576; 0353; 0776; 1462; 0722; 1456; 0456; 1522; 0357; 
      12474  0353
      12475  0776
      12476  1462



      /HP-45 AND HP-35 EMULATOR                                          Page 68


      12477  0722
      12500  1456
      12501  0456
      12502  1522
      12503  0357
 2195 12504  0650          0650; 1316; 1662; 1456; 0422; 0450; 1776; 1776; 0217; 
      12505  1316
      12506  1662
      12507  1456
      12510  0422
      12511  0450
      12512  1776
      12513  1776
      12514  0217
 2196 12515  0316          0316; 0052; 1326; 1311; 0542; 0650; 1656; 0414; 1221; 
      12516  0052
      12517  1326
      12520  1311
      12521  0542
      12522  0650
      12523  1656
      12524  0414
      12525  1221
 2197 12526  0614          0614; 1155; 1014; 1155; 0214; 1030; 1214; 1155; 1071; 
      12527  1155
      12530  1014
      12531  1155
      12532  0214
      12533  1030
      12534  1214
      12535  1155
      12536  1071
 2198 12537  1155          1155; 1461; 0416; 1155; 0216; 1455; 1461; 1256; 1231; 
      12540  1461
      12541  0416
      12542  1155
      12543  0216
      12544  1455
      12545  1461
      12546  1256
      12547  1231
 2199 12550  1124          1124; 0663; 0376; 1141; 0144; 0316; 0542; 0752; 0124; 
      12551  0663
      12552  0376
      12553  1141
      12554  0144
      12555  0316
      12556  0542
      12557  0752
      12560  0124



      /HP-45 AND HP-35 EMULATOR                                          Page 69


 2200 12561  1227          1227; 1231; 1461; 1256; 1225; 1461; 1256; 1256; 1125; 
      12562  1231
      12563  1461
      12564  1256
      12565  1225
      12566  1461
      12567  1256
      12570  1256
      12571  1125
 2201 12572  1256          1256; 1655; 1461; 1214; 1161; 1071; 1014; 1165; 0214; 
      12573  1655
      12574  1461
      12575  1214
      12576  1161
      12577  1071
      12600  1014
      12601  1165
      12602  0214
 2202 12603  1030          1030; 0614; 1161; 0414; 1161; 1161; 1456; 1116; 1514; 
      12604  0614
      12605  1161
      12606  0414
      12607  1161
      12610  1161
      12611  1456
      12612  1116
      12613  1514
 2203 12614  0530          0530; 1757; 0614; 1030; 0630; 0530; 0230; 0430; 1130; 
      12615  1757
      12616  0614
      12617  1030
      12620  0630
      12621  0530
      12622  0230
      12623  0430
      12624  1130
 2204 12625  0124          0124; 1553; 0060; 1356; 1742; 0020; 0420; 0416; 1226; 
      12626  1553
      12627  0060
      12630  1356
      12631  1742
      12632  0020
      12633  0420
      12634  0416
      12635  1226
 2205 12636  1056          1056; 1207; 0776; 1416; 1203; 1616; 0420; 0420; 0512; 
      12637  1207
      12640  0776
      12641  1416
      12642  1203



      /HP-45 AND HP-35 EMULATOR                                          Page 70


      12643  1616
      12644  0420
      12645  0420
      12646  0512
 2206 12647  0420          0420; 0742; 1516; 1243; 1716; 0416; 0034; 1122; 0054; 
      12650  0742
      12651  1516
      12652  1243
      12653  1716
      12654  0416
      12655  0034
      12656  1122
      12657  0054
 2207 12660  1247          1247; 0267; 0742; 1426; 1313; 1626; 0426; 0034; 0054; 
      12661  0267
      12662  0742
      12663  1426
      12664  1313
      12665  1626
      12666  0426
      12667  0034
      12670  0054
 2208 12671  1317          1317; 0267; 0034; 1626; 1557; 0020; 0572; 0572; 1352; 
      12672  0267
      12673  0034
      12674  1626
      12675  1557
      12676  0020
      12677  0572
      12700  0572
      12701  1352
 2209 12702  1536          1536; 1176; 1433; 0420; 1006; 1453; 0376; 1456; 1416; 
      12703  1176
      12704  1433
      12705  0420
      12706  1006
      12707  1453
      12710  0376
      12711  1456
      12712  1416
 2210 12713  0420          0420; 0316; 1314; 0730; 1030; 0530; 0330; 1130; 1030; 
      12714  0316
      12715  1314
      12716  0730
      12717  1030
      12720  0530
      12721  0330
      12722  1130
      12723  1030
 2211 12724  0130          0130; 0630; 0330; 0530; 1414; 0060; 0020; 1612; 1573; 



      /HP-45 AND HP-35 EMULATOR                                          Page 71


      12725  0630
      12726  0330
      12727  0530
      12730  1414
      12731  0060
      12732  0020
      12733  1612
      12734  1573
 2212 12735  0542          0542; 0776; 0054; 1357; 1652; 1352; 0142; 1633; 1316; 
      12736  0776
      12737  0054
      12740  1357
      12741  1652
      12742  1352
      12743  0142
      12744  1633
      12745  1316
 2213 12746  1116          1116; 1052; 0312; 1414; 1273; 0420; 1222; 1222; 0576; 
      12747  1052
      12750  0312
      12751  1414
      12752  1273
      12753  0420
      12754  1222
      12755  1222
      12756  0576
 2214 12757  1663          1663; 0722; 1422; 1062; 0216; 1576; 1673; 1662; 0650; 
      12760  0722
      12761  1422
      12762  1062
      12763  0216
      12764  1576
      12765  1673
      12766  1662
      12767  0650
 2215 12770  0036          0036; 0007; 0416; 1662; 0450; 1222; 0576; 1076; 0020; 
      12771  0007
      12772  0416
      12773  1662
      12774  0450
      12775  1222
      12776  0576
      12777  1076
      13000  0020
 2216 13001  1476          1476; 1776; 1126; 0422; 0113; 0650; 1231; 0616; 1024; 
      13002  1776
      13003  1126
      13004  0422
      13005  0113
      13006  0650



      /HP-45 AND HP-35 EMULATOR                                          Page 72


      13007  1231
      13010  0616
      13011  1024
 2217 13012  0413          0413; 1356; 1506; 0003; 1316; 0576; 0003; 0776; 0456; 
      13013  1356
      13014  1506
      13015  0003
      13016  1316
      13017  0576
      13020  0003
      13021  0776
      13022  0456
 2218 13023  1131          1131; 1542; 0107; 1462; 1636; 0007; 0714; 0665; 1014; 
      13024  1542
      13025  0107
      13026  1462
      13027  1636
      13030  0007
      13031  0714
      13032  0665
      13033  1014
 2219 13034  1165          1165; 1114; 1161; 1771; 1214; 1161; 0765; 1314; 1161; 
      13035  1114
      13036  1161
      13037  1771
      13040  1214
      13041  1161
      13042  0765
      13043  1314
      13044  1161
 2220 13045  1575          1575; 1161; 1345; 1161; 1731; 1656; 0516; 0032; 0277; 
      13046  1161
      13047  1345
      13050  1161
      13051  1731
      13052  1656
      13053  0516
      13054  0032
      13055  0277
 2221 13056  0516          0516; 1456; 0034; 0416; 0154; 0303; 1656; 0676; 0343; 
      13057  1456
      13060  0034
      13061  0416
      13062  0154
      13063  0303
      13064  1656
      13065  0676
      13066  0343
 2222 13067  0346          0346; 0752; 1314; 1425; 1124; 0033; 0524; 1123; 1731; 
      13070  0752



      /HP-45 AND HP-35 EMULATOR                                          Page 73


      13071  1314
      13072  1425
      13073  1124
      13074  0033
      13075  0524
      13076  1123
      13077  1731
 2223 13100  1235          1235; 1123; 1731; 1661; 1345; 1314; 1155; 1575; 1214; 
      13101  1123
      13102  1731
      13103  1661
      13104  1345
      13105  1314
      13106  1155
      13107  1575
      13110  1214
 2224 13111  1155          1155; 0765; 1114; 1155; 1771; 1014; 1155; 1155; 1155; 
      13112  0765
      13113  1114
      13114  1155
      13115  1771
      13116  1014
      13117  1155
      13120  1155
      13121  1155
 2225 13122  0614          0614; 1362; 1514; 1056; 1656; 0630; 1073; 0224; 0573; 
      13123  1362
      13124  1514
      13125  1056
      13126  1656
      13127  0630
      13130  1073
      13131  0224
      13132  0573
 2226 13133  1752          1752; 1172; 1413; 1426; 0547; 1626; 0416; 0552; 0563; 
      13134  1172
      13135  1413
      13136  1426
      13137  0547
      13140  1626
      13141  0416
      13142  0552
      13143  0563
 2227 13144  1316          1316; 0322; 1652; 0676; 0663; 1456; 1416; 0356; 1316; 
      13145  0322
      13146  1652
      13147  0676
      13150  0663
      13151  1456
      13152  1416



      /HP-45 AND HP-35 EMULATOR                                          Page 74


      13153  0356
      13154  1316
 2228 13155  1056          1056; 0316; 0546; 0224; 0733; 0430; 0746; 0747; 0630; 
      13156  0316
      13157  0546
      13160  0224
      13161  0733
      13162  0430
      13163  0746
      13164  0747
      13165  0630
 2229 13166  0154          0154; 0727; 1116; 1116; 0224; 1123; 0060; 0714; 0330; 
      13167  0727
      13170  1116
      13171  1116
      13172  0224
      13173  1123
      13174  0060
      13175  0714
      13176  0330
 2230 13177  0330          0330; 0030; 1030; 0530; 0030; 1130; 1653; 1131; 1742; 
      13200  0030
      13201  1030
      13202  0530
      13203  0030
      13204  1130
      13205  1653
      13206  1131
      13207  1742
 2231 13210  0456          0456; 0576; 1033; 1322; 1656; 0426; 1656; 1576; 1043; 
      13211  0576
      13212  1033
      13213  1322
      13214  1656
      13215  0426
      13216  1656
      13217  1576
      13220  1043
 2232 13221  1456          1456; 1742; 1461; 0220; 1322; 1576; 1127; 1376; 1616; 
      13222  1742
      13223  1461
      13224  0220
      13225  1322
      13226  1576
      13227  1127
      13230  1376
      13231  1616
 2233 13232  0060          0060; 0220; 1316; 1056; 1203; 1616; 0576; 1177; 1656; 
      13233  0220
      13234  1316



      /HP-45 AND HP-35 EMULATOR                                          Page 75


      13235  1056
      13236  1203
      13237  1616
      13240  0576
      13241  1177
      13242  1656
 2234 13243  0426          0426; 1656; 0667; 0314; 0712; 0536; 1257; 0276; 1446; 
      13244  1656
      13245  0667
      13246  0314
      13247  0712
      13250  0536
      13251  1257
      13252  0276
      13253  1446
 2235 13254  1356          1356; 1454; 1427; 0146; 1333; 0124; 0003; 0222; 1546; 
      13255  1454
      13256  1427
      13257  0146
      13260  1333
      13261  0124
      13262  0003
      13263  0222
      13264  1546
 2236 13265  0772          0772; 1062; 1646; 0220; 1044; 0630; 1130; 0330; 0130; 
      13266  1062
      13267  1646
      13270  0220
      13271  1044
      13272  0630
      13273  1130
      13274  0330
      13275  0130
 2237 13276  0430          0430; 0730; 0130; 1633; 1746; 0623; 1616; 0542; 1423; 
      13277  0730
      13300  0130
      13301  1633
      13302  1746
      13303  0623
      13304  1616
      13305  0542
      13306  1423
 2238 13307  1316          1316; 0074; 1554; 1427; 0752; 1376; 1414; 0056; 1142; 
      13310  0074
      13311  1554
      13312  1427
      13313  0752
      13314  1376
      13315  1414
      13316  0056



      /HP-45 AND HP-35 EMULATOR                                          Page 76


      13317  1142
 2239 13320  1533          1533; 0416; 0552; 1156; 1477; 0316; 0452; 1616; 1176; 
      13321  0416
      13322  0552
      13323  1156
      13324  1477
      13325  0316
      13326  0452
      13327  1616
      13330  1176
 2240 13331  1437          1437; 1646; 0616; 0056; 1414; 0753; 1114; 0330; 0130; 
      13332  1646
      13333  0616
      13334  0056
      13335  1414
      13336  0753
      13337  1114
      13340  0330
      13341  0130
 2241 13342  0030          0030; 0130; 0730; 1130; 1030; 0030; 0530; 0530; 0330; 
      13343  0130
      13344  0730
      13345  1130
      13346  1030
      13347  0030
      13350  0530
      13351  0530
      13352  0330
 2242 13353  1567          1567; 1656; 0456; 0606; 1272; 0573; 0772; 1316; 0752; 
      13354  1656
      13355  0456
      13356  0606
      13357  1272
      13360  0573
      13361  0772
      13362  1316
      13363  0752
 2243 13364  1713          1713; 0637; 0316; 1414; 0230; 0330; 0030; 0230; 0530; 
      13365  0637
      13366  0316
      13367  1414
      13370  0230
      13371  0330
      13372  0030
      13373  0230
      13374  0530
 2244 13375  1007          1007; 0514; 0773;
      13376  0514
      13377  0773
 2245              



      /HP-45 AND HP-35 EMULATOR                                          Page 77


 2246              IFZERO STRT8 <
 2247 13400  0255  ROM45,  0255; 1420; 0451; 1456; 1746; 0472; 1572; 1616; 1352;
      13401  1420
      13402  0451
      13403  1456
      13404  1746
      13405  0472
      13406  1572
      13407  1616
      13410  1352
 2248 13411  1611          1611; 1611; 1352; 1445; 0623; 1024; 0507; 1035; 1656;
      13412  1611
      13413  1352
      13414  1445
      13415  0623
      13416  1024
      13417  0507
      13420  1035
      13421  1656
 2249 13422  0616          0616; 0013; 1220; 1035; 1656; 1020; 0220; 0324; 0143;
      13423  0013
      13424  1220
      13425  1035
      13426  1656
      13427  1020
      13430  0220
      13431  0324
      13432  0143
 2250 13433  0450          0450; 0316; 1160; 0000; 1370; 1656; 1171; 1431; 1211;
      13434  0316
      13435  1160
      13436  0000
      13437  1370
      13440  1656
      13441  1171
      13442  1431
      13443  1211
 2251 13444  1431          1431; 1376; 1370; 0676; 0267; 1576; 0265; 0123; 0220;
      13445  1376
      13446  1370
      13447  0676
      13450  0267
      13451  1576
      13452  0265
      13453  0123
      13454  0220
 2252 13455  1656          1656; 1024; 1713; 0376; 1711; 0124; 0263; 1224; 0647;
      13456  1024
      13457  1713
      13460  0376



      /HP-45 AND HP-35 EMULATOR                                          Page 78


      13461  1711
      13462  0124
      13463  0263
      13464  1224
      13465  0647
 2253 13466  0353          0353; 0220; 0616; 0220; 1656; 0616; 0772; 0433; 0652;
      13467  0220
      13470  0616
      13471  0220
      13472  1656
      13473  0616
      13474  0772
      13475  0433
      13476  0652
 2254 13477  0433          0433; 0316; 0014; 0530; 1414; 0712; 1657; 1224; 0727;
      13500  0316
      13501  0014
      13502  0530
      13503  1414
      13504  0712
      13505  1657
      13506  1224
      13507  0727
 2255 13510  1656          1656; 0343; 0312; 0014; 0530; 1512; 1172; 1463; 1777;
      13511  0343
      13512  0312
      13513  0014
      13514  0530
      13515  1512
      13516  1172
      13517  1463
      13520  1777
 2256 13521  0451          0451; 1615; 0056; 1462; 1456; 0416; 1625; 0704; 1445;
      13522  1615
      13523  0056
      13524  1462
      13525  1456
      13526  0416
      13527  1625
      13530  0704
      13531  1445
 2257 13532  0316          0316; 0330; 0630; 1414; 1171; 1031; 0767; 0752; 0742;
      13533  0330
      13534  0630
      13535  1414
      13536  1171
      13537  1031
      13540  0767
      13541  0752
      13542  0742



      /HP-45 AND HP-35 EMULATOR                                          Page 79


 2258 13543  1017          1017; 0316; 0214; 0430; 1656; 0007; 0220; 0704; 0424;
      13544  0316
      13545  0214
      13546  0430
      13547  1656
      13550  0007
      13551  0220
      13552  0704
      13553  0424
 2259 13554  0717          0717; 1256; 0736; 1146; 0713; 0376; 1231; 0104; 0127;
      13555  1256
      13556  0736
      13557  1146
      13560  0713
      13561  0376
      13562  1231
      13563  0104
      13564  0127
 2260 13565  0220          0220; 1024; 0653; 1035; 0104; 1224; 0353; 1717; 1656;
      13566  1024
      13567  0653
      13570  1035
      13571  0104
      13572  1224
      13573  0353
      13574  1717
      13575  1656
 2261 13576  0620          0620; 0552; 0552; 0704; 0542; 1224; 1173; 1213; 1244;
      13577  0552
      13600  0552
      13601  0704
      13602  0542
      13603  1224
      13604  1173
      13605  1213
      13606  1244
 2262 13607  0704          0704; 0444; 0604; 1250; 0676; 1073; 0404; 0776; 1107;
      13610  0444
      13611  0604
      13612  1250
      13613  0676
      13614  1073
      13615  0404
      13616  0776
      13617  1107
 2263 13620  0644          0644; 0316; 0752; 0124; 1403; 0424; 1607; 0744; 0624;
      13621  0316
      13622  0752
      13623  0124
      13624  1403



      /HP-45 AND HP-35 EMULATOR                                          Page 80


      13625  0424
      13626  1607
      13627  0744
      13630  0624
 2264 13631  1013          1013; 0607; 1253; 1224; 1213; 1304; 0144; 0056; 1227;
      13632  0607
      13633  1253
      13634  1224
      13635  1213
      13636  1304
      13637  0144
      13640  0056
      13641  1227
 2265 13642  1304          1304; 0144; 0220; 0220; 1304; 0376; 0144; 0244; 0056;
      13643  0144
      13644  0220
      13645  0220
      13646  1304
      13647  0376
      13650  0144
      13651  0244
      13652  0056
 2266 13653  1772          1772; 1772; 0772; 0772; 0112; 1313; 1656; 1646; 0646;
      13654  1772
      13655  0772
      13656  0772
      13657  0112
      13660  1313
      13661  1656
      13662  1646
      13663  0646
 2267 13664  1333          1333; 1656; 1046; 0112; 1373; 1216; 1752; 0016; 1373;
      13665  1656
      13666  1046
      13667  0112
      13670  1373
      13671  1216
      13672  1752
      13673  0016
      13674  1373
 2268 13675  1337          1337; 0220; 1777; 0624; 1607; 0744; 0424; 1013; 0777;
      13676  0220
      13677  1777
      13700  0624
      13701  1607
      13702  0744
      13703  0424
      13704  1013
      13705  0777
 2269 13706  0650          0650; 0450; 0060; 1304; 0220; 0220; 1046; 1216; 1752;



      /HP-45 AND HP-35 EMULATOR                                          Page 81


      13707  0450
      13710  0060
      13711  1304
      13712  0220
      13713  0220
      13714  1046
      13715  1216
      13716  1752
 2270 13717  1467          1467; 1356; 0614; 0060; 1324; 1543; 1256; 0704; 1163;
      13720  1356
      13721  0614
      13722  0060
      13723  1324
      13724  1543
      13725  1256
      13726  0704
      13727  1163
 2271 13730  0220          0220; 1414; 1517; 1324; 1747; 1304; 0724; 1457; 1344;
      13731  1414
      13732  1517
      13733  1324
      13734  1747
      13735  1304
      13736  0724
      13737  1457
      13740  1344
 2272 13741  0060          0060; 0056; 1462; 1216; 1214; 1616; 0034; 0454; 1633;
      13742  0056
      13743  1462
      13744  1216
      13745  1214
      13746  1616
      13747  0034
      13750  0454
      13751  1633
 2273 13752  0060          0060; 0316; 0742; 1224; 0337; 0647; 0124; 0773; 1656;
      13753  0316
      13754  0742
      13755  1224
      13756  0337
      13757  0647
      13760  0124
      13761  0773
      13762  1656
 2274 13763  0316          0316; 0542; 1160; 0316; 1360; 0767; 0324; 1703; 1224;
      13764  0542
      13765  1160
      13766  0316
      13767  1360
      13770  0767



      /HP-45 AND HP-35 EMULATOR                                          Page 82


      13771  0324
      13772  1703
      13773  1224
 2275 13774  1773          1773; 1020; 1220; 0420; 1076; 1717; 1456; 0301; 1370;
      13775  1020
      13776  1220
      13777  0420
      14000  1076
      14001  1717
      14002  1456
      14003  0301
      14004  1370
 2276 14005  1656          1656; 0301; 1370; 1656; 1124; 0063; 1656; 0524; 0153;
      14006  0301
      14007  1370
      14010  1656
      14011  1124
      14012  0063
      14013  1656
      14014  0524
      14015  0153
 2277 14016  0176          0176; 0107; 1044; 0336; 1231; 1360; 1225; 1141; 0265;
      14017  0107
      14020  1044
      14021  0336
      14022  1231
      14023  1360
      14024  1225
      14025  1141
      14026  0265
 2278 14027  1370          1370; 0020; 1656; 1231; 1224; 1553; 1356; 1742; 0446;
      14030  0020
      14031  1656
      14032  1231
      14033  1224
      14034  1553
      14035  1356
      14036  1742
      14037  0446
 2279 14040  1646          1646; 0552; 1222; 0672; 0207; 1322; 0752; 0227; 1316;
      14041  0552
      14042  1222
      14043  0672
      14044  0207
      14045  1322
      14046  0752
      14047  0227
      14050  1316
 2280 14051  1216          1216; 1360; 1056; 0433; 1056; 0414; 1573; 1360; 1656;
      14052  1360



      /HP-45 AND HP-35 EMULATOR                                          Page 83


      14053  1056
      14054  0433
      14055  1056
      14056  0414
      14057  1573
      14060  1360
      14061  1656
 2281 14062  0642          0642; 0327; 0256; 0616; 0212; 1457; 0047; 0020; 0524;
      14063  0327
      14064  0256
      14065  0616
      14066  0212
      14067  1457
      14070  0047
      14071  0020
      14072  0524
 2282 14073  0167          0167; 0376; 1676; 0117; 1222; 1576; 0377; 0776; 1462;
      14074  0376
      14075  1676
      14076  0117
      14077  1222
      14100  1576
      14101  0377
      14102  0776
      14103  1462
 2283 14104  0722          0722; 1456; 0456; 1522; 0403; 1656; 1370; 1116; 1676;
      14105  1456
      14106  0456
      14107  1522
      14110  0403
      14111  1656
      14112  1370
      14113  1116
      14114  1676
 2284 14115  1456          1456; 0422; 1360; 1776; 1776; 0257; 0316; 0052; 1326;
      14116  0422
      14117  1360
      14120  1776
      14121  1776
      14122  0257
      14123  0316
      14124  0052
      14125  1326
 2285 14126  1311          1311; 1542; 1370; 0414; 1221; 0614; 1155; 1014; 1155;
      14127  1542
      14130  1370
      14131  0414
      14132  1221
      14133  0614
      14134  1155



      /HP-45 AND HP-35 EMULATOR                                          Page 84


      14135  1014
      14136  1155
 2286 14137  0214          0214; 1030; 1214; 1155; 1071; 1155; 1461; 0416; 1155;
      14140  1030
      14141  1214
      14142  1155
      14143  1071
      14144  1155
      14145  1461
      14146  0416
      14147  1155
 2287 14150  0216          0216; 1455; 1461; 1256; 1224; 0727; 1124; 0727; 1656;
      14151  1455
      14152  1461
      14153  1256
      14154  1224
      14155  0727
      14156  1124
      14157  0727
      14160  1656
 2288 14161  0376          0376; 1151; 1461; 1256; 0020; 1461; 1256; 1256; 1125;
      14162  1151
      14163  1461
      14164  1256
      14165  0020
      14166  1461
      14167  1256
      14170  1256
      14171  1125
 2289 14172  1256          1256; 1655; 1461; 1214; 1161; 1071; 1014; 1165; 0214;
      14173  1655
      14174  1461
      14175  1214
      14176  1161
      14177  1071
      14200  1014
      14201  1165
      14202  0214
 2290 14203  1030          1030; 0614; 1161; 0414; 1161; 1161; 1456; 1116; 1514;
      14204  0614
      14205  1161
      14206  0414
      14207  1161
      14210  1161
      14211  1456
      14212  1116
      14213  1514
 2291 14214  0530          0530; 1763; 0614; 1030; 0630; 0530; 0230; 0430; 1130;
      14215  1763
      14216  0614



      /HP-45 AND HP-35 EMULATOR                                          Page 85


      14217  1030
      14220  0630
      14221  0530
      14222  0230
      14223  0430
      14224  1130
 2292 14225  0124          0124; 1553; 0060; 1356; 1742; 0020; 0420; 0416; 1226;
      14226  1553
      14227  0060
      14230  1356
      14231  1742
      14232  0020
      14233  0420
      14234  0416
      14235  1226
 2293 14236  1056          1056; 1207; 0776; 1416; 1203; 1616; 0420; 0420; 0512;
      14237  1207
      14240  0776
      14241  1416
      14242  1203
      14243  1616
      14244  0420
      14245  0420
      14246  0512
 2294 14247  0420          0420; 0742; 1516; 1243; 1716; 0416; 0034; 1122; 0054;
      14250  0742
      14251  1516
      14252  1243
      14253  1716
      14254  0416
      14255  0034
      14256  1122
      14257  0054
 2295 14260  1247          1247; 0327; 0742; 1426; 1313; 1626; 0426; 0034; 0054;
      14261  0327
      14262  0742
      14263  1426
      14264  1313
      14265  1626
      14266  0426
      14267  0034
      14270  0054
 2296 14271  1317          1317; 0327; 0034; 1626; 1557; 0020; 0572; 0572; 1352;
      14272  0327
      14273  0034
      14274  1626
      14275  1557
      14276  0020
      14277  0572
      14300  0572



      /HP-45 AND HP-35 EMULATOR                                          Page 86


      14301  1352
 2297 14302  1536          1536; 1176; 1433; 0420; 1006; 1453; 0376; 1456; 1416;
      14303  1176
      14304  1433
      14305  0420
      14306  1006
      14307  1453
      14310  0376
      14311  1456
      14312  1416
 2298 14313  0420          0420; 0316; 1314; 0730; 1030; 0530; 0330; 1130; 1030;
      14314  0316
      14315  1314
      14316  0730
      14317  1030
      14320  0530
      14321  0330
      14322  1130
      14323  1030
 2299 14324  0130          0130; 0630; 0330; 0530; 0020; 0060; 0020; 1612; 1573;
      14325  0630
      14326  0330
      14327  0530
      14330  0020
      14331  0060
      14332  0020
      14333  1612
      14334  1573
 2300 14335  0542          0542; 0776; 0054; 1357; 1652; 1352; 0142; 1633; 1316;
      14336  0776
      14337  0054
      14340  1357
      14341  1652
      14342  1352
      14343  0142
      14344  1633
      14345  1316
 2301 14346  1116          1116; 1052; 0312; 1414; 1273; 0420; 1222; 1222; 0576;
      14347  1052
      14350  0312
      14351  1414
      14352  1273
      14353  0420
      14354  1222
      14355  1222
      14356  0576
 2302 14357  1663          1663; 0722; 1422; 1062; 0216; 1576; 1673; 1676; 1370;
      14360  0722
      14361  1422
      14362  1062



      /HP-45 AND HP-35 EMULATOR                                          Page 87


      14363  0216
      14364  1576
      14365  1673
      14366  1676
      14367  1370
 2303 14370  1656          1656; 0036; 0013; 0416; 1662; 1360; 1222; 0576; 1420;
      14371  0036
      14372  0013
      14373  0416
      14374  1662
      14375  1360
      14376  1222
      14377  0576
      14400  1420
 2304 14401  1476          1476; 1776; 1126; 0422; 0113; 0650; 1231; 0616; 1024;
      14402  1776
      14403  1126
      14404  0422
      14405  0113
      14406  0650
      14407  1231
      14410  0616
      14411  1024
 2305 14412  0413          0413; 1356; 1506; 0003; 1316; 0576; 0003; 0776; 0456;
      14413  1356
      14414  1506
      14415  0003
      14416  1316
      14417  0576
      14420  0003
      14421  0776
      14422  0456
 2306 14423  1131          1131; 1542; 0107; 1462; 1636; 0007; 0714; 0665; 1014;
      14424  1542
      14425  0107
      14426  1462
      14427  1636
      14430  0007
      14431  0714
      14432  0665
      14433  1014
 2307 14434  1165          1165; 1114; 1161; 1771; 1214; 1161; 0765; 1314; 1161;
      14435  1114
      14436  1161
      14437  1771
      14440  1214
      14441  1161
      14442  0765
      14443  1314
      14444  1161



      /HP-45 AND HP-35 EMULATOR                                          Page 88


 2308 14445  1575          1575; 1161; 1345; 1161; 1731; 1656; 0516; 0032; 0277;
      14446  1161
      14447  1345
      14450  1161
      14451  1731
      14452  1656
      14453  0516
      14454  0032
      14455  0277
 2309 14456  0516          0516; 1456; 0034; 0416; 0154; 0303; 1656; 0676; 0343;
      14457  1456
      14460  0034
      14461  0416
      14462  0154
      14463  0303
      14464  1656
      14465  0676
      14466  0343
 2310 14467  0346          0346; 0752; 1314; 1425; 1124; 0033; 0524; 1123; 1731;
      14470  0752
      14471  1314
      14472  1425
      14473  1124
      14474  0033
      14475  0524
      14476  1123
      14477  1731
 2311 14500  1235          1235; 1123; 1731; 1661; 1345; 1314; 1155; 1575; 1214;
      14501  1123
      14502  1731
      14503  1661
      14504  1345
      14505  1314
      14506  1155
      14507  1575
      14510  1214
 2312 14511  1155          1155; 0765; 1114; 1155; 1771; 1014; 1155; 1155; 1155;
      14512  0765
      14513  1114
      14514  1155
      14515  1771
      14516  1014
      14517  1155
      14520  1155
      14521  1155
 2313 14522  0614          0614; 1362; 1514; 1056; 1656; 0630; 1073; 0224; 0573;
      14523  1362
      14524  1514
      14525  1056
      14526  1656



      /HP-45 AND HP-35 EMULATOR                                          Page 89


      14527  0630
      14530  1073
      14531  0224
      14532  0573
 2314 14533  1752          1752; 1172; 1413; 1426; 0547; 1626; 0416; 0552; 0563;
      14534  1172
      14535  1413
      14536  1426
      14537  0547
      14540  1626
      14541  0416
      14542  0552
      14543  0563
 2315 14544  1316          1316; 0322; 1652; 0676; 0663; 1456; 1416; 0356; 1316;
      14545  0322
      14546  1652
      14547  0676
      14550  0663
      14551  1456
      14552  1416
      14553  0356
      14554  1316
 2316 14555  1056          1056; 0316; 0546; 0224; 0733; 0430; 0746; 0747; 0630;
      14556  0316
      14557  0546
      14560  0224
      14561  0733
      14562  0430
      14563  0746
      14564  0747
      14565  0630
 2317 14566  0154          0154; 0727; 1116; 1116; 0224; 1123; 0060; 0714; 0330;
      14567  0727
      14570  1116
      14571  1116
      14572  0224
      14573  1123
      14574  0060
      14575  0714
      14576  0330
 2318 14577  0330          0330; 0030; 1030; 0530; 0030; 1130; 1653; 1131; 1742;
      14600  0030
      14601  1030
      14602  0530
      14603  0030
      14604  1130
      14605  1653
      14606  1131
      14607  1742
 2319 14610  0456          0456; 0576; 1033; 1322; 1656; 0426; 1656; 1576; 1043;



      /HP-45 AND HP-35 EMULATOR                                          Page 90


      14611  0576
      14612  1033
      14613  1322
      14614  1656
      14615  0426
      14616  1656
      14617  1576
      14620  1043
 2320 14621  1456          1456; 1742; 1461; 0220; 1322; 1576; 1127; 1376; 1616;
      14622  1742
      14623  1461
      14624  0220
      14625  1322
      14626  1576
      14627  1127
      14630  1376
      14631  1616
 2321 14632  0060          0060; 0220; 1316; 1056; 1203; 1616; 0576; 1177; 1656;
      14633  0220
      14634  1316
      14635  1056
      14636  1203
      14637  1616
      14640  0576
      14641  1177
      14642  1656
 2322 14643  0426          0426; 1656; 0667; 0314; 0712; 0536; 1257; 0276; 1446;
      14644  1656
      14645  0667
      14646  0314
      14647  0712
      14650  0536
      14651  1257
      14652  0276
      14653  1446
 2323 14654  1356          1356; 1454; 1427; 0146; 1333; 0124; 0003; 1220; 1557;
      14655  1454
      14656  1427
      14657  0146
      14660  1333
      14661  0124
      14662  0003
      14663  1220
      14664  1557
 2324 14665  0000          0000; 1062; 1646; 0220; 1044; 0630; 1130; 0330; 0130;
      14666  1062
      14667  1646
      14670  0220
      14671  1044
      14672  0630



      /HP-45 AND HP-35 EMULATOR                                          Page 91


      14673  1130
      14674  0330
      14675  0130
 2325 14676  0430          0430; 0730; 0130; 1633; 1746; 0623; 1616; 0542; 1423;
      14677  0730
      14700  0130
      14701  1633
      14702  1746
      14703  0623
      14704  1616
      14705  0542
      14706  1423
 2326 14707  1316          1316; 0074; 1554; 1427; 0752; 1376; 1414; 0056; 1142;
      14710  0074
      14711  1554
      14712  1427
      14713  0752
      14714  1376
      14715  1414
      14716  0056
      14717  1142
 2327 14720  1533          1533; 0416; 0552; 1156; 1477; 0316; 0452; 1616; 1176;
      14721  0416
      14722  0552
      14723  1156
      14724  1477
      14725  0316
      14726  0452
      14727  1616
      14730  1176
 2328 14731  1437          1437; 1646; 0616; 0056; 1414; 0753; 1114; 0330; 0130;
      14732  1646
      14733  0616
      14734  0056
      14735  1414
      14736  0753
      14737  1114
      14740  0330
      14741  0130
 2329 14742  0030          0030; 0130; 0730; 1130; 1030; 0030; 0530; 0530; 0330;
      14743  0130
      14744  0730
      14745  1130
      14746  1030
      14747  0030
      14750  0530
      14751  0530
      14752  0330
 2330 14753  1567          1567; 1656; 0456; 0606; 1272; 0573; 0772; 1316; 0752;
      14754  1656



      /HP-45 AND HP-35 EMULATOR                                          Page 92


      14755  0456
      14756  0606
      14757  1272
      14760  0573
      14761  0772
      14762  1316
      14763  0752
 2331 14764  1713          1713; 0637; 0316; 1414; 0230; 0330; 0030; 0230; 0530;
      14765  0637
      14766  0316
      14767  1414
      14770  0230
      14771  0330
      14772  0030
      14773  0230
      14774  0530
 2332 14775  1007          1007; 0514; 0773; 1020; 0000; 0453; 0547; 0553; 0000;
      14776  0514
      14777  0773
      15000  1020
      15001  0000
      15002  0453
      15003  0547
      15004  0553
      15005  0000
 2333 15006  0423          0423; 0420; 1020; 1420; 0633; 0643; 1450; 0777; 0650;
      15007  0420
      15010  1020
      15011  1420
      15012  0633
      15013  0643
      15014  1450
      15015  0777
      15016  0650
 2334 15017  0450          0450; 0773; 0377; 1756; 1756; 1756; 0153; 1020; 1035;
      15020  0773
      15021  0377
      15022  1756
      15023  1756
      15024  1756
      15025  0153
      15026  1020
      15027  1035
 2335 15030  0416          0416; 0513; 1756; 1756; 1756; 0060; 1020; 0320; 1044;
      15031  0513
      15032  1756
      15033  1756
      15034  1756
      15035  0060
      15036  1020



      /HP-45 AND HP-35 EMULATOR                                          Page 93


      15037  0320
      15040  1044
 2336 15041  1020          1020; 0203; 0314; 0060; 1020; 0227; 0504; 0621; 0413;
      15042  0203
      15043  0314
      15044  0060
      15045  1020
      15046  0227
      15047  0504
      15050  0621
      15051  0413
 2337 15052  0463          0463; 0237; 1020; 0000; 0605; 0443; 0000; 0020; 1756;
      15053  0237
      15054  1020
      15055  0000
      15056  0605
      15057  0443
      15060  0000
      15061  0020
      15062  1756
 2338 15063  1756          1756; 1756; 0113; 1020; 0000; 1231; 1007; 1357; 1407;
      15064  1756
      15065  0113
      15066  1020
      15067  0000
      15070  1231
      15071  1007
      15072  1357
      15073  1407
 2339 15074  0056          0056; 1620; 0450; 1235; 1007; 0605; 1144; 0307; 0605;
      15075  1620
      15076  0450
      15077  1235
      15100  1007
      15101  0605
      15102  1144
      15103  0307
      15104  0605
 2340 15105  1356          1356; 1742; 0447; 1020; 1020; 1144; 0137; 0621; 1104;
      15106  1742
      15107  0447
      15110  1020
      15111  1020
      15112  1144
      15113  0137
      15114  0621
      15115  1104
 2341 15116  0504          0504; 0307; 0416; 1756; 0416; 0250; 1652; 0250; 0713;
      15117  0307
      15120  0416



      /HP-45 AND HP-35 EMULATOR                                          Page 94


      15121  1756
      15122  0416
      15123  0250
      15124  1652
      15125  0250
      15126  0713
 2342 15127  0000          0000; 0000; 1044; 1104; 0605; 0204; 0037; 1035; 0503;
      15130  0000
      15131  1044
      15132  1104
      15133  0605
      15134  0204
      15135  0037
      15136  1035
      15137  0503
 2343 15140  0304          0304; 1244; 1420; 1420; 0104; 0607; 1104; 0647; 1144;
      15141  1244
      15142  1420
      15143  1420
      15144  0104
      15145  0607
      15146  1104
      15147  0647
      15150  1144
 2344 15151  0204          0204; 1035; 0725; 0615; 1124; 0707; 1731; 0773; 1360;
      15152  1035
      15153  0725
      15154  0615
      15155  1124
      15156  0707
      15157  1731
      15160  0773
      15161  1360
 2345 15162  0724          0724; 0377; 0777; 0014; 1142; 1777; 0713; 1035; 0725;
      15163  0377
      15164  0777
      15165  0014
      15166  1142
      15167  1777
      15170  0713
      15171  1035
      15172  0725
 2346 15173  1020          1020; 0000; 0000; 1656; 1235; 0704; 1025; 1725; 1533;
      15174  0000
      15175  0000
      15176  1656
      15177  1235
      15200  0704
      15201  1025
      15202  1725



      /HP-45 AND HP-35 EMULATOR                                          Page 95


      15203  1533
 2347 15204  0376          0376; 1244; 1043; 1316; 0636; 1044; 1123; 0772; 1004;
      15205  1244
      15206  1043
      15207  1316
      15210  0636
      15211  1044
      15212  1123
      15213  0772
      15214  1004
 2348 15215  0524          0524; 1113; 0752; 1057; 0050; 0024; 1063; 0044; 0034;
      15216  1113
      15217  0752
      15220  1057
      15221  0050
      15222  0024
      15223  1063
      15224  0044
      15225  0034
 2349 15226  1454          1454; 1127; 1050; 1024; 1107; 0416; 0544; 1224; 0177;
      15227  1127
      15230  1050
      15231  1024
      15232  1107
      15233  0416
      15234  0544
      15235  1224
      15236  0177
 2350 15237  1020          1020; 0000; 0322; 0562; 0332; 1612; 1237; 0316; 0064;
      15240  0000
      15241  0322
      15242  0562
      15243  0332
      15244  1612
      15245  1237
      15246  0316
      15247  0064
 2351 15250  0616          0616; 1414; 0452; 0612; 0672; 1307; 0252; 0572; 1207;
      15251  1414
      15252  0452
      15253  0612
      15254  0672
      15255  1307
      15256  0252
      15257  0572
      15260  1207
 2352 15261  1652          1652; 0424; 0047; 1452; 0052; 1025; 1454; 1037; 0412;
      15262  0424
      15263  0047
      15264  1452



      /HP-45 AND HP-35 EMULATOR                                          Page 96


      15265  0052
      15266  1025
      15267  1454
      15270  1037
      15271  0412
 2353 15272  1373          1373; 0404; 1324; 0163; 1316; 1662; 1433; 1316; 0424;
      15273  0404
      15274  1324
      15275  0163
      15276  1316
      15277  1662
      15300  1433
      15301  1316
      15302  0424
 2354 15303  1023          1023; 1662; 0372; 0616; 0672; 1457; 0332; 0252; 1514;
      15304  1662
      15305  0372
      15306  0616
      15307  0672
      15310  1457
      15311  0332
      15312  0252
      15313  1514
 2355 15314  0426          0426; 0552; 1176; 1663; 1166; 1463; 0312; 1025; 1326;
      15315  0552
      15316  1176
      15317  1663
      15320  1166
      15321  1463
      15322  0312
      15323  1025
      15324  1326
 2356 15325  0636          0636; 1454; 1577; 0216; 0756; 0114; 0422; 0074; 0642;
      15326  1454
      15327  1577
      15330  0216
      15331  0756
      15332  0114
      15333  0422
      15334  0074
      15335  0642
 2357 15336  1557          1557; 1656; 0354; 1627; 0312; 0604; 1433; 0624; 1643;
      15337  1656
      15340  0354
      15341  1627
      15342  0312
      15343  0604
      15344  1433
      15345  0624
      15346  1643



      /HP-45 AND HP-35 EMULATOR                                          Page 97


 2358 15347  0034          0034; 1222; 1431; 0034; 0752; 0002; 1653; 1304; 1326;
      15350  1222
      15351  1431
      15352  0034
      15353  0752
      15354  0002
      15355  1653
      15356  1304
      15357  1326
 2359 15360  1646          1646; 0424; 1517; 1245; 1007; 1366; 0724; 1747; 0450;
      15361  0424
      15362  1517
      15363  1245
      15364  1007
      15365  1366
      15366  0724
      15367  1747
      15370  0450
 2360 15371  0704          0704; 0316; 0556; 0276; 0776; 1056; 0060; 0000; 1023;
      15372  0316
      15373  0556
      15374  0276
      15375  0776
      15376  1056
      15377  0060
      15400  0000
      15401  1023
 2361 15402  0563          0563; 1443; 0543; 1420; 0605; 0553; 1143; 0413; 1044;
      15403  1443
      15404  0543
      15405  1420
      15406  0605
      15407  0553
      15410  1143
      15411  0413
      15412  1044
 2362 15413  0103          0103; 0203; 0020; 0605; 1777; 0605; 0067; 1013; 1013;
      15414  0203
      15415  0020
      15416  0605
      15417  1777
      15420  0605
      15421  0067
      15422  1013
      15423  1013
 2363 15424  1013          1013; 1220; 0000; 0643; 1327; 0000; 1013; 1013; 1013;
      15425  1220
      15426  0000
      15427  0643
      15430  1327



      /HP-45 AND HP-35 EMULATOR                                          Page 98


      15431  0000
      15432  1013
      15433  1013
      15434  1013
 2364 15435  0000          0000; 0000; 0673; 0601; 1220; 1503; 0713; 0707; 0000;
      15436  0000
      15437  0673
      15440  0601
      15441  1220
      15442  1503
      15443  0713
      15444  0707
      15445  0000
 2365 15446  0717          0717; 0504; 0571; 0407; 0457; 0237; 1117; 1243; 0605;
      15447  0504
      15450  0571
      15451  0407
      15452  0457
      15453  0237
      15454  1117
      15455  1243
      15456  0605
 2366 15457  0407          0407; 0000; 0000; 1756; 1756; 0703; 1220; 0000; 0657;
      15460  0000
      15461  0000
      15462  1756
      15463  1756
      15464  0703
      15465  1220
      15466  0000
      15467  0657
 2367 15470  0605          0605; 1727; 1756; 0377; 0000; 0000; 1556; 0014; 0473;
      15471  1727
      15472  1756
      15473  0377
      15474  0000
      15475  0000
      15476  1556
      15477  0014
      15500  0473
 2368 15501  0620          0620; 0601; 1044; 1450; 0450; 0552; 0552; 1024; 1217;
      15502  0601
      15503  1044
      15504  1450
      15505  0450
      15506  0552
      15507  0552
      15510  1024
      15511  1217
 2369 15512  1207          1207; 0571; 0620; 0620; 0416; 0074; 1554; 0473; 0250;



      /HP-45 AND HP-35 EMULATOR                                          Page 99


      15513  0571
      15514  0620
      15515  0620
      15516  0416
      15517  0074
      15520  1554
      15521  0473
      15522  0250
 2370 15523  1642          1642; 0250; 0620; 0000; 0000; 0504; 0620; 1035; 0620;
      15524  0250
      15525  0620
      15526  0000
      15527  0000
      15530  0504
      15531  0620
      15532  1035
      15533  0620
 2371 15534  1244          1244; 0620; 0104; 0607; 0304; 1204; 1420; 1420; 1420;
      15535  0620
      15536  0104
      15537  0607
      15540  0304
      15541  1204
      15542  1420
      15543  1420
      15544  1420
 2372 15545  1204          1204; 0304; 0617; 0604; 0404; 0727; 0644; 0404; 0727;
      15546  0304
      15547  0617
      15550  0604
      15551  0404
      15552  0727
      15553  0644
      15554  0404
      15555  0727
 2373 15556  0604          0604; 0723; 1756; 1420; 1420; 0644; 0444; 0224; 0777;
      15557  0723
      15560  1756
      15561  1420
      15562  1420
      15563  0644
      15564  0444
      15565  0224
      15566  0777
 2374 15567  1244          1244; 0620; 1244; 1220; 0000; 1057; 0000; 0620; 0605;
      15570  0620
      15571  1244
      15572  1220
      15573  0000
      15574  1057



      /HP-45 AND HP-35 EMULATOR                                         Page 100


      15575  0000
      15576  0620
      15577  0605
 2375 15600  0650          0650; 0747; 1244; 1027; 1204; 1144; 0620; 0650; 0450;
      15601  0747
      15602  1244
      15603  1027
      15604  1204
      15605  1144
      15606  0620
      15607  0650
      15610  0450
 2376 15611  1656          1656; 0060; 1124; 1103; 0601; 1656; 0747; 0625; 1360;
      15612  0060
      15613  1124
      15614  1103
      15615  0601
      15616  1656
      15617  0747
      15620  0625
      15621  1360
 2377 15622  1073          1073; 0571; 0650; 0304; 1244; 0467; 0601; 1450; 0450;
      15623  0571
      15624  0650
      15625  0304
      15626  1244
      15627  0467
      15630  0601
      15631  1450
      15632  0450
 2378 15633  1231          1231; 0423; 0000; 0000; 1220; 0320; 0344; 1227; 0344;
      15634  0423
      15635  0000
      15636  0000
      15637  1220
      15640  0320
      15641  0344
      15642  1227
      15643  0344
 2379 15644  0220          0220; 0220; 0376; 0020; 0571; 0304; 0444; 0676; 1273;
      15645  0220
      15646  0376
      15647  0020
      15650  0571
      15651  0304
      15652  0444
      15653  0676
      15654  1273
 2380 15655  0404          0404; 1450; 1041; 1146; 0327; 0322; 0742; 0325; 0144;
      15656  1450



      /HP-45 AND HP-35 EMULATOR                                         Page 101


      15657  1041
      15660  1146
      15661  0327
      15662  0322
      15663  0742
      15664  0325
      15665  0144
 2381 15666  1035          1035; 0616; 1221; 1360; 1455; 0621; 1221; 1370; 1235;
      15667  0616
      15670  1221
      15671  1360
      15672  1455
      15673  0621
      15674  1221
      15675  1370
      15676  1235
 2382 15677  1572          1572; 1572; 1572; 1427; 0572; 1705; 0616; 0405; 1707;
      15700  1572
      15701  1572
      15702  1427
      15703  0572
      15704  1705
      15705  0616
      15706  0405
      15707  1707
 2383 15710  0605          0605; 0204; 0027; 0316; 1160; 0000; 1370; 0060; 1124;
      15711  0204
      15712  0027
      15713  0316
      15714  1160
      15715  0000
      15716  1370
      15717  0060
      15720  1124
 2384 15721  1517          1517; 1177; 0601; 0127; 0000; 0000; 0000; 0000; 0000;
      15722  1177
      15723  0601
      15724  0127
      15725  0000
      15726  0000
      15727  0000
      15730  0000
      15731  0000
 2385 15732  0000          0000; 0000; 0000; 0000; 0000; 0000; 0000; 0000; 0000;
      15733  0000
      15734  0000
      15735  0000
      15736  0000
      15737  0000
      15740  0000



      /HP-45 AND HP-35 EMULATOR                                         Page 102


      15741  0000
      15742  0000
 2386 15743  0000          0000; 0000; 0000; 0000; 0000; 0000; 0000; 0000; 0000;
      15744  0000
      15745  0000
      15746  0000
      15747  0000
      15750  0000
      15751  0000
      15752  0000
      15753  0000
 2387 15754  0000          0000; 0000; 0000; 0000; 0000; 0020; 0000; 0000; 0000;
      15755  0000
      15756  0000
      15757  0000
      15760  0000
      15761  0020
      15762  0000
      15763  0000
      15764  0000
 2388 15765  1220          1220; 0000; 0000; 0000; 0000; 0000; 0000; 0000; 0000;
      15766  0000
      15767  0000
      15770  0000
      15771  0000
      15772  0000
      15773  0000
      15774  0000
      15775  0000
 2389 15776  0060          0060; 1420; 1420; 0742; 0742; 0742; 0742; 0742; 0516;
      15777  1420
      16000  1420
      16001  0742
      16002  0742
      16003  0742
      16004  0742
      16005  0742
      16006  0516
 2390 16007  1160          1160; 0000; 1370; 0424; 1777; 1656; 1024; 1237; 1233;
      16010  0000
      16011  1370
      16012  0424
      16013  1777
      16014  1656
      16015  1024
      16016  1237
      16017  1233
 2391 16020  0620          0620; 0000; 0000; 0000; 0000; 1623; 0404; 1244; 1221;
      16021  0000
      16022  0000



      /HP-45 AND HP-35 EMULATOR                                         Page 103


      16023  0000
      16024  0000
      16025  1623
      16026  0404
      16027  1244
      16030  1221
 2392 16031  0011          0011; 1355; 0265; 0616; 0015; 0217; 0000; 0000; 0000;
      16032  1355
      16033  0265
      16034  0616
      16035  0015
      16036  0217
      16037  0000
      16040  0000
      16041  0000
 2393 16042  0413          0413; 1355; 0311; 0021; 1355; 0316; 0742; 0616; 0005;
      16043  1355
      16044  0311
      16045  0021
      16046  1355
      16047  0316
      16050  0742
      16051  0616
      16052  0005
 2394 16053  1355          1355; 0103; 0316; 1160; 0000; 1370; 0060; 1450; 0450;
      16054  0103
      16055  0316
      16056  1160
      16057  0000
      16060  1370
      16061  0060
      16062  1450
      16063  0450
 2395 16064  0616          0616; 0060; 1044; 1144; 1225; 0000; 0000; 0000; 0000;
      16065  0060
      16066  1044
      16067  1144
      16070  1225
      16071  0000
      16072  0000
      16073  0000
      16074  0000
 2396 16075  0000          0000; 0000; 0000; 0000; 0620; 1244; 0444; 0015; 0616;
      16076  0000
      16077  0000
      16100  0000
      16101  0620
      16102  1244
      16103  0444
      16104  0015



      /HP-45 AND HP-35 EMULATOR                                         Page 104


      16105  0616
 2397 16106  1221          1221; 0005; 0176; 0003; 1225; 0011; 1656; 1231; 0450;
      16107  0005
      16110  0176
      16111  0003
      16112  1225
      16113  0011
      16114  1656
      16115  1231
      16116  0450
 2398 16117  0005          0005; 1656; 0316; 0742; 1231; 0650; 1225; 0405; 0450;
      16120  1656
      16121  0316
      16122  0742
      16123  1231
      16124  0650
      16125  1225
      16126  0405
      16127  0450
 2399 16130  0015          0015; 0616; 0005; 1205; 0444; 0724; 0603; 0450; 0616;
      16131  0616
      16132  0005
      16133  1205
      16134  0444
      16135  0724
      16136  0603
      16137  0450
      16140  0616
 2400 16141  0021          0021; 0450; 0616; 0015; 0773; 0000; 0000; 0000; 0000;
      16142  0450
      16143  0616
      16144  0015
      16145  0773
      16146  0000
      16147  0000
      16150  0000
      16151  0000
 2401 16152  0000          0000; 0000; 0000; 0000; 0000; 0000; 0000; 0000; 0000;
      16153  0000
      16154  0000
      16155  0000
      16156  0000
      16157  0000
      16160  0000
      16161  0000
      16162  0000
 2402 16163  0000          0000; 0000; 1355; 1656; 0620; 0000; 0000; 0000; 1561;
      16164  0000
      16165  1355
      16166  1656



      /HP-45 AND HP-35 EMULATOR                                         Page 105


      16167  0620
      16170  0000
      16171  0000
      16172  0000
      16173  1561
 2403 16174  1124          1124; 0727; 0620; 0000; 0000; 0000; 0000; 0000; 0000;
      16175  0727
      16176  0620
      16177  0000
      16200  0000
      16201  0000
      16202  0000
      16203  0000
      16204  0000
 2404 16205  0000          0000; 0000; 0000; 0000; 0000; 0000; 0000; 0000; 0000;
      16206  0000
      16207  0000
      16210  0000
      16211  0000
      16212  0000
      16213  0000
      16214  0000
      16215  0000
 2405 16216  0000          0000; 0000; 0000; 0000; 0000; 0000; 0000; 0000; 0000;
      16217  0000
      16220  0000
      16221  0000
      16222  0000
      16223  0000
      16224  0000
      16225  0000
      16226  0000
 2406 16227  0000          0000; 0000; 0000; 0000; 0000; 0000; 0000; 0000; 0000;
      16230  0000
      16231  0000
      16232  0000
      16233  0000
      16234  0000
      16235  0000
      16236  0000
      16237  0000
 2407 16240  0563          0563; 0344; 1227; 0344; 0220; 0220; 0376; 0020; 0000;
      16241  0344
      16242  1227
      16243  0344
      16244  0220
      16245  0220
      16246  0376
      16247  0020
      16250  0000



      /HP-45 AND HP-35 EMULATOR                                         Page 106


 2408 16251  0000          0000; 0000; 0000; 0000; 0000; 0000; 0000; 0322; 0562;
      16252  0000
      16253  0000
      16254  0000
      16255  0000
      16256  0000
      16257  0000
      16260  0322
      16261  0562
 2409 16262  0332          0332; 0420; 1303; 0322; 0562; 0332; 1612; 1357; 0316;
      16263  0420
      16264  1303
      16265  0322
      16266  0562
      16267  0332
      16270  1612
      16271  1357
      16272  0316
 2410 16273  0616          0616; 1414; 0452; 0612; 0672; 1423; 0252; 0572; 1327;
      16274  1414
      16275  0452
      16276  0612
      16277  0672
      16300  1423
      16301  0252
      16302  0572
      16303  1327
 2411 16304  1666          1666; 1370; 1656; 1360; 0060; 0000; 0000; 0000; 0000;
      16305  1370
      16306  1656
      16307  1360
      16310  0060
      16311  0000
      16312  0000
      16313  0000
      16314  0000
 2412 16315  0000          0000; 0000; 0000; 0000; 0000; 0000; 0000; 0000; 0000;
      16316  0000
      16317  0000
      16320  0000
      16321  0000
      16322  0000
      16323  0000
      16324  0000
      16325  0000
 2413 16326  0000          0000; 0000; 0000; 0000; 0000; 0000; 0424; 1607; 0624;
      16327  0000
      16330  0000
      16331  0000
      16332  0000



      /HP-45 AND HP-35 EMULATOR                                         Page 107


      16333  0000
      16334  0424
      16335  1607
      16336  0624
 2414 16337  1233          1233; 1237; 0624; 1227; 1223; 0316; 0576; 0214; 0230;
      16340  1237
      16341  0624
      16342  1227
      16343  1223
      16344  0316
      16345  0576
      16346  0214
      16347  0230
 2415 16350  0250          0250; 0316; 1356; 1414; 0542; 1160; 1656; 0450; 1360;
      16351  0316
      16352  1356
      16353  1414
      16354  0542
      16355  1160
      16356  1656
      16357  0450
      16360  1360
 2416 16361  1656          1656; 0742; 0742; 1663; 0773; 0316; 0630; 1653; 0000;
      16362  0742
      16363  0742
      16364  1663
      16365  0773
      16366  0316
      16367  0630
      16370  1653
      16371  0000
 2417 16372  0000          0000; 0000; 0000; 0000; 0000; 0060; 1363; 0037; 0064;
      16373  0000
      16374  0000
      16375  0000
      16376  0000
      16377  0060
      16400  1363
      16401  0037
      16402  0064
 2418 16403  0777          0777; 0772; 0771; 1721; 0316; 0064; 0504; 0616; 1250;
      16404  0772
      16405  0771
      16406  1721
      16407  0316
      16410  0064
      16411  0504
      16412  0616
      16413  1250
 2419 16414  1656          1656; 0147; 1326; 1752; 0073; 1514; 1472; 0472; 0034;



      /HP-45 AND HP-35 EMULATOR                                         Page 108


      16415  0147
      16416  1326
      16417  1752
      16420  0073
      16421  1514
      16422  1472
      16423  0472
      16424  0034
 2420 16425  0254          0254; 0267; 1356; 1552; 0056; 1004; 0114; 0472; 0606;
      16426  0267
      16427  1356
      16430  1552
      16431  0056
      16432  1004
      16433  0114
      16434  0472
      16435  0606
 2421 16436  0426          0426; 1142; 0107; 1044; 1614; 0612; 0172; 0073; 0034;
      16437  1142
      16440  0107
      16441  1044
      16442  1614
      16443  0612
      16444  0172
      16445  0073
      16446  0034
 2422 16447  0254          0254; 0253; 0137; 1552; 0233; 0113; 1572; 0123; 0442;
      16450  0253
      16451  0137
      16452  1552
      16453  0233
      16454  0113
      16455  1572
      16456  0123
      16457  0442
 2423 16460  0034          0034; 1362; 0612; 1626; 0353; 1326; 1776; 1752; 1024;
      16461  1362
      16462  0612
      16463  1626
      16464  0353
      16465  1326
      16466  1776
      16467  1752
      16470  1024
 2424 16471  0357          0357; 0074; 1326; 0066; 1572; 1172; 0407; 0137; 1772;
      16472  0074
      16473  1326
      16474  0066
      16475  1572
      16476  1172



      /HP-45 AND HP-35 EMULATOR                                         Page 109


      16477  0407
      16500  0137
      16501  1772
 2425 16502  1456          1456; 1742; 1742; 0426; 1572; 0427; 1362; 1562; 1326;
      16503  1742
      16504  1742
      16505  0426
      16506  1572
      16507  0427
      16510  1362
      16511  1562
      16512  1326
 2426 16513  1456          1456; 1024; 0527; 1652; 0052; 0672; 0523; 0252; 0572;
      16514  1024
      16515  0527
      16516  1652
      16517  0052
      16520  0672
      16521  0523
      16522  0252
      16523  0572
 2427 16524  1652          1652; 0524; 1773; 1003; 0000; 0000; 0000; 0000; 0000;
      16525  0524
      16526  1773
      16527  1003
      16530  0000
      16531  0000
      16532  0000
      16533  0000
      16534  0000
 2428 16535  0000          0000; 0000; 0000; 0000; 0000; 0000; 1323; 1223; 0616;
      16536  0000
      16537  0000
      16540  0000
      16541  0000
      16542  0000
      16543  1323
      16544  1223
      16545  0616
 2429 16546  0316          0316; 0542; 1160; 1656; 0616; 1757; 0000; 0000; 0000;
      16547  0542
      16550  1160
      16551  1656
      16552  0616
      16553  1757
      16554  0000
      16555  0000
      16556  0000
 2430 16557  0000          0000; 0000; 0000; 1007; 0731; 0064; 0220; 0724; 0747;
      16560  0000



      /HP-45 AND HP-35 EMULATOR                                         Page 110


      16561  0000
      16562  1007
      16563  0731
      16564  0064
      16565  0220
      16566  0724
      16567  0747
 2431 16570  0450          0450; 0316; 0060; 0000; 1244; 0621; 0620; 0145; 0620;
      16571  0316
      16572  0060
      16573  0000
      16574  1244
      16575  0621
      16576  0620
      16577  0145
      16600  0620
 2432 16601  0416          0416; 0416; 0731; 1572; 1037; 0763; 1572; 1067; 0230;
      16602  0416
      16603  0731
      16604  1572
      16605  1037
      16606  0763
      16607  1572
      16610  1067
      16611  0230
 2433 16612  0530          0530; 0430; 0773; 1572; 1147; 0430; 0530; 0330; 0530;
      16613  0430
      16614  0773
      16615  1572
      16616  1147
      16617  0430
      16620  0530
      16621  0330
      16622  0530
 2434 16623  1130          1130; 0230; 0330; 0730; 0552; 0771; 0330; 0730; 1030;
      16624  0230
      16625  0330
      16626  0730
      16627  0552
      16630  0771
      16631  0330
      16632  0730
      16633  1030
 2435 16634  0530          0530; 0430; 0130; 0130; 0730; 1030; 0430; 0773; 0014;
      16635  0430
      16636  0130
      16637  0130
      16640  0730
      16641  1030
      16642  0430



      /HP-45 AND HP-35 EMULATOR                                         Page 111


      16643  0773
      16644  0014
 2436 16645  0416          0416; 0074; 1454; 1227; 1376; 1656; 1160; 0244; 1370;
      16646  0074
      16647  1454
      16650  1227
      16651  1376
      16652  1656
      16653  1160
      16654  0244
      16655  1370
 2437 16656  1656          1656; 1344; 0056; 0124; 1757; 0627; 0456; 1656; 0316;
      16657  1344
      16660  0056
      16661  0124
      16662  1757
      16663  0627
      16664  0456
      16665  1656
      16666  0316
 2438 16667  1160          1160; 0216; 1656; 1360; 0623; 0176; 0037; 0172; 0037;
      16670  0216
      16671  1656
      16672  1360
      16673  0623
      16674  0176
      16675  0037
      16676  0172
      16677  0037
 2439 16700  0152          0152; 1423; 0034; 1457; 0034; 0354; 1443; 0023; 0552;
      16701  1423
      16702  0034
      16703  1457
      16704  0034
      16705  0354
      16706  1443
      16707  0023
      16710  0552
 2440 16711  1401          1401; 0420; 0162; 0037; 1652; 1314; 0652; 1527; 0552;
      16712  0420
      16713  0162
      16714  0037
      16715  1652
      16716  1314
      16717  0652
      16720  1527
      16721  0552
 2441 16722  0152          0152; 0023; 0416; 1656; 1356; 1742; 0256; 1453; 1656;
      16723  0023
      16724  0416



      /HP-45 AND HP-35 EMULATOR                                         Page 112


      16725  1656
      16726  1356
      16727  1742
      16730  0256
      16731  1453
      16732  1656
 2442 16733  1116          1116; 0776; 1414; 0466; 1716; 1577; 1516; 0416; 1716;
      16734  0776
      16735  1414
      16736  0466
      16737  1716
      16740  1577
      16741  1516
      16742  0416
      16743  1716
 2443 16744  1617          1617; 1776; 1456; 1731; 1314; 1731; 0216; 0062; 1216;
      16745  1776
      16746  1456
      16747  1731
      16750  1314
      16751  1731
      16752  0216
      16753  0062
      16754  1216
 2444 16755  1456          1456; 1626; 1567; 1656; 1052; 0752; 1451; 1044; 0420;
      16756  1626
      16757  1567
      16760  1656
      16761  1052
      16762  0752
      16763  1451
      16764  1044
      16765  0420
 2445 16766  0002          0002; 1753; 1222; 1752; 0060; 1224; 1773; 1020; 0620;
      16767  1753
      16770  1222
      16771  1752
      16772  0060
      16773  1224
      16774  1773
      16775  1020
      16776  0620
 2446 16777  0000          0000; 0027; 1213; 0027; 0027; 0027; 0067; 0027; 0107;
      17000  0027
      17001  1213
      17002  0027
      17003  0027
      17004  0027
      17005  0067
      17006  0027



      /HP-45 AND HP-35 EMULATOR                                         Page 113


      17007  0107
 2447 17010  0027          0027; 1237; 0027; 0027; 0027; 1223; 0027; 1130; 1117;
      17011  1237
      17012  0027
      17013  0027
      17014  0027
      17015  1223
      17016  0027
      17017  1130
      17020  1117
 2448 17021  1227          1227; 0303; 0177; 0430; 0767; 0027; 1030; 1117; 1243;
      17022  0303
      17023  0177
      17024  0430
      17025  0767
      17026  0027
      17027  1030
      17030  1117
      17031  1243
 2449 17032  0753          0753; 0763; 0130; 0767; 0027; 0530; 1117; 0237; 1103;
      17033  0763
      17034  0130
      17035  0767
      17036  0027
      17037  0530
      17040  1117
      17041  0237
      17042  1103
 2450 17043  1507          1507; 0030; 0767; 0027; 0047; 0027; 0267; 0027; 0027;
      17044  0030
      17045  0767
      17046  0027
      17047  0047
      17050  0027
      17051  0267
      17052  0027
      17053  0027
 2451 17054  0027          0027; 0277; 0027; 0337; 0630; 1117; 0077; 0137; 0730;
      17055  0277
      17056  0027
      17057  0337
      17060  0630
      17061  1117
      17062  0077
      17063  0137
      17064  0730
 2452 17065  0767          0767; 0027; 1767; 1356; 0065; 0723; 1073; 0713; 0620;
      17066  0027
      17067  1767
      17070  1356



      /HP-45 AND HP-35 EMULATOR                                         Page 114


      17071  0065
      17072  0723
      17073  1073
      17074  0713
      17075  0620
 2453 17076  1124          1124; 0367; 0064; 0176; 1773; 0552; 0552; 0672; 1773;
      17077  0367
      17100  0064
      17101  0176
      17102  1773
      17103  0552
      17104  0552
      17105  0672
      17106  1773
 2454 17107  0447          0447; 1106; 0752; 0443; 1656; 1250; 0130; 0330; 0106;
      17110  1106
      17111  0752
      17112  0443
      17113  1656
      17114  1250
      17115  0130
      17116  0330
      17117  0106
 2455 17120  1773          1773; 0630; 1214; 0102; 1773; 1014; 1322; 0714; 0630;
      17121  0630
      17122  1214
      17123  0102
      17124  1773
      17125  1014
      17126  1322
      17127  0714
      17130  0630
 2456 17131  0714          0714; 0102; 1773; 0250; 0514; 1322; 1322; 1322; 1322;
      17132  0102
      17133  1773
      17134  0250
      17135  0514
      17136  1322
      17137  1322
      17140  1322
      17141  1322
 2457 17142  1456          1456; 1562; 1352; 1014; 1542; 1314; 1742; 1742; 1576;
      17143  1562
      17144  1352
      17145  1014
      17146  1542
      17147  1314
      17150  1742
      17151  1742
      17152  1576



      /HP-45 AND HP-35 EMULATOR                                         Page 115


 2458 17153  1456          1456; 0044; 0245; 0245; 0024; 1063; 1233; 1204; 1223;
      17154  0044
      17155  0245
      17156  0245
      17157  0024
      17160  1063
      17161  1233
      17162  1204
      17163  1223
 2459 17164  0012          0012; 1043; 0052; 0037; 0000; 0000; 0330; 1117; 0230;
      17165  1043
      17166  0052
      17167  0037
      17170  0000
      17171  0000
      17172  0330
      17173  1117
      17174  0230
 2460 17175  1117          1117; 0620; 0024; 0007; 1024; 0663; 1050; 1044; 1414;
      17176  0620
      17177  0024
      17200  0007
      17201  1024
      17202  0663
      17203  1050
      17204  1044
      17205  1414
 2461 17206  0316          0316; 0320; 1452; 1552; 1452; 1227; 1004; 0207; 1224;
      17207  0320
      17210  1452
      17211  1552
      17212  1452
      17213  1227
      17214  1004
      17215  0207
      17216  1224
 2462 17217  0713          0713; 1244; 1160; 1133; 1160; 1224; 1157; 1656; 0616;
      17220  1244
      17221  1160
      17222  1133
      17223  1160
      17224  1224
      17225  1157
      17226  1656
      17227  0616
 2463 17230  1106          1106; 1360; 1233; 1370; 1414; 0642; 1203; 0316; 1656;
      17231  1360
      17232  1233
      17233  1370
      17234  1414



      /HP-45 AND HP-35 EMULATOR                                         Page 116


      17235  0642
      17236  1203
      17237  0316
      17240  1656
 2464 17241  0426          0426; 0265; 0275; 0275; 0275; 0275; 0335; 1250; 1050;
      17242  0265
      17243  0275
      17244  0275
      17245  0275
      17246  0275
      17247  0335
      17250  1250
      17251  1050
 2465 17252  0050          0050; 1224; 0777; 0114; 1762; 0777; 0614; 1742; 1213;
      17253  1224
      17254  0777
      17255  0114
      17256  1762
      17257  0777
      17260  0614
      17261  1742
      17262  1213
 2466 17263  0714          0714; 1742; 0102; 1343; 1217; 1362; 1114; 1742; 0067;
      17264  1742
      17265  0102
      17266  1343
      17267  1217
      17270  1362
      17271  1114
      17272  1742
      17273  0067
 2467 17274  1214          1214; 1742; 0102; 1407; 1227; 0322; 1362; 1314; 1742;
      17275  1742
      17276  0102
      17277  1407
      17300  1227
      17301  0322
      17302  1362
      17303  1314
      17304  1742
 2468 17305  1453          1453; 1356; 1414; 1742; 1237; 0106; 1467; 0047; 1356;
      17306  1356
      17307  1414
      17310  1742
      17311  1237
      17312  0106
      17313  1467
      17314  0047
      17315  1356
 2469 17316  1314          1314; 1742; 0147; 1250; 0322; 0214; 0012; 1543; 0430;



      /HP-45 AND HP-35 EMULATOR                                         Page 117


      17317  1742
      17320  0147
      17321  1250
      17322  0322
      17323  0214
      17324  0012
      17325  1543
      17326  0430
 2470 17327  1547          1547; 0630; 0250; 0316; 1414; 0056; 1160; 1056; 1370;
      17330  0630
      17331  0250
      17332  0316
      17333  1414
      17334  0056
      17335  1160
      17336  1056
      17337  1370
 2471 17340  0142          0142; 1623; 1655; 1360; 1056; 0742; 1567; 1306; 1656;
      17341  1623
      17342  1655
      17343  1360
      17344  1056
      17345  0742
      17346  1567
      17347  1306
      17350  1656
 2472 17351  1655          1655; 0773; 0662; 1767; 1656; 0416; 1014; 0422; 0614;
      17352  0773
      17353  0662
      17354  1767
      17355  1656
      17356  0416
      17357  1014
      17360  0422
      17361  0614
 2473 17362  0422          0422; 0422; 0422; 1414; 1752; 1142; 1763; 1552; 0406;
      17363  0422
      17364  0422
      17365  1414
      17366  1752
      17367  1142
      17370  1763
      17371  1552
      17372  0406
 2474 17373  1737          1737; 1656; 0060; 0316; 0455;
      17374  1656
      17375  0060
      17376  0316
      17377  0455
 2475              >



      /HP-45 AND HP-35 EMULATOR                                         Page 118


 2476              $

      No detected errors
      152 links generated



      /HP-45 AND HP-35 EMULATOR                                         Page 119
                                                                    Symbol Table

    1  ADDR   00022   CLEARR 03520   GETFL  02656   NEWIDX 00030   SIZE   00025 
    2  AR00   01713   CLR1   03526   GETFL1 02674   NLCR   04102   SRMOD  01000 
    3  AR01   01723   CLRS   03316   GETFL2 02704   NODBG  00644   START  00204 
    4  AR02   01731   CLRSB  03143   GETSR  00632   OPCODE 00005   STORAT 03252 
    5  AR03   01746   CLRSB1 03150   GOTO   03037   OPNOP  01600   STRT8   0000 
    6  AR04   02000   CLRSB2 03153   GRTMSG 10200   OS8     0002   TEMP   00116 
    7  AR05   02010   CLRSB3 03155   HELP   01206   P      00002   TESTP  03225 
    8  AR06   02024   COPY   03360   HLTINS 00125   PC     00020   TESTS  03210 
    9  AR07   02032   COPY1  03364   HLTNOW 00706   PCARRY 00015   TESTS1 03215 
   10  AR08   02046   CTOADR 03600   HLTOPC 00710   PRCR   01427   TESTS2 03220 
   11  AR09   02062   CTODAT 03606   HP35    0000   PRINT  01200   TESTS3 03222 
   12  AR0A   02072   DATTOC 03621   HP45    0001   PRINTR 03532   TPFOUR 03200 
   13  AR0B   02112   DBGADQ 00647   HPMSG  04047   PRNLP  04065   TTY     0000 
   14  AR0C   02126   DBGMDS 00651   HPMSGL 04042   PRNR1  03536   TXTPRN 04061 
   15  AR0D   02136   DBGMOD  0004   HPROM  00127   PRTMSG 04036   UPDATE 00013 
   16  AR0E   02146   DBGSKP 00675   INCP   03322   PRTSIX 04107 
   17  AR0F   02200   DEBUG  00126   INDEX1 00010   PULLA  03422 
   18  AR10   02214   DEBUGP 00657   INDEX2 00011   PUSHC  03400 
   19  AR11   02231   DECOD1 01062   INIT1  00211   RAM    03634 
   20  AR12   02253   DECODE 00032   INIT2  00227   RAMADR 00034 
   21  AR121  02266   DECOLP 01065   INIT3  00245   READKB 01027 
   22  AR122  02264   DECP   03274   INIT4  00400   REGA   00035 
   23  AR13   02276   DELROM 00021   INSDEC 01020   REGB   00044 
   24  AR14   02310   DISOFF 03444   INSTLU 05000   REGC   00053 
   25  AR141  02323   DISP   01400   INVKEY 01215   REGD   00062 
   26  AR142  02321   DISPEN 00012   JSB    03024   REGE   00071 
   27  AR15   02333   DISPT  03304   KEYC   00023   REGF   00100 
   28  AR16   02350   DOADD  02727   KEYLU  04200   REGIDX 00027 
   29  AR161  02363   DOADD1 02750   KEYMSG 10400   REGM   00107 
   30  AR162  02361   DOADD2 02746   KEYR   00024   REGS   00033 
   31  AR17   02400   DOSUB  03000   KTOROM 03331   REGTOP 00026 
   32  AR18   02407   DOSUB1 03006   LAST   00007   REINIT 01012 
   33  AR19   02427   DOSUB2 03021   LDCONS 03104   RESET  04000 
   34  AR1A   02451   DOSUB3 03022   LDCST1 03120   RESLP  04011 
   35  AR1B   02471   DSROM  03073   LOOP   00600   RESULT 00121 
   36  AR1C   02505   ENDKEY 04314   LPDIS1 01422   RET    00004 
   37  AR1D   02600   EOLCNT 04060   LPDIS2 01452   RETS   03311 
   38  AR1E   02622   EOLJMP 04077   LPDIS3 01461   ROM    00003 
   39  AR1F   02642   ERR    00016   LPDIS4 01476   ROM35  12000 
   40  ARITH  01605   ERRLP  01531   LPDIS5 01472   ROM45  13400 
   41  ARITH1 01630   ERRMSG 01536   LPDIS6 01474   ROTATE 03464 
   42  ARITH2 01633   ERROR  01602   LPDIS7 01505   SBNLCR 04134 
   43  ARLOOK 01653   FIRST  00006   LPDIS8 01520   SELROM 03054 
   44  ATIO   00031   FL1    02720   LPDIS9 01516   SETMSG 04033 
   45  BIGLP  01433   FL2    02721   LPDISP 01411   SETP   03067 
   46  BYTE1  00117   FL3    02722   MOD35  04025   SETS   03122 
   47  BYTE2  00120   FL5    02724   MOD45  04030   SETS1  03127 
   48  CARRY  00014   FL6    02725   MODE   00130   SETS2  03132 
   49  CEXCHM 03336   FL7    02726   MODEL  04054   SETS3  03134 
   50  CHKKEY 01220   GETAT  03236   MTOC   03454   SHIFT  04133 
